Archive member included because of file (symbol)

/home/omn/ti/gcc/bin/../lib/gcc/msp430-elf/4.9.1/430/libgcc.a(_ashrdi3.o)
                              ./metrology-background.o (__ashrdi3)
/home/omn/ti/gcc/bin/../lib/gcc/msp430-elf/4.9.1/430/libgcc.a(_divdi3.o)
                              ./metrology-background.o (__mspabi_divlli)
/home/omn/ti/gcc/bin/../lib/gcc/msp430-elf/4.9.1/430/libgcc.a(lib2divSI.o)
                              ./metrology-background.o (__mspabi_divli)
/home/omn/ti/gcc/bin/../lib/gcc/msp430-elf/4.9.1/430/libgcc.a(epilogue.o)
                              ./driverlib/sd24.o (__mspabi_func_epilog_7)
/home/omn/ti/gcc/bin/../lib/gcc/msp430-elf/4.9.1/430/libgcc.a(slli.o)
                              ./driverlib/mpy.o (__mspabi_slll)
/home/omn/ti/gcc/bin/../lib/gcc/msp430-elf/4.9.1/430/libgcc.a(srai.o)
                              ./metrology-background.o (__mspabi_srai_15)
/home/omn/ti/gcc/bin/../lib/gcc/msp430-elf/4.9.1/430/libgcc.a(srli.o)
                              /home/omn/ti/gcc/bin/../lib/gcc/msp430-elf/4.9.1/430/crtbegin.o (__mspabi_srli_15)
/home/omn/ti/gcc/bin/../lib/gcc/msp430-elf/4.9.1/430/libgcc.a(lib2hw_mul.o)
                              ./metrology-background.o (__mulhi2)
/home/omn/ti/gcc/bin/../lib/gcc/msp430-elf/4.9.1/430/libgcc.a(_lshrdi3.o)
                              /home/omn/ti/gcc/bin/../lib/gcc/msp430-elf/4.9.1/430/libgcc.a(_divdi3.o) (__lshrdi3)
/home/omn/ti/gcc/bin/../lib/gcc/msp430-elf/4.9.1/430/libgcc.a(_ashldi3.o)
                              /home/omn/ti/gcc/bin/../lib/gcc/msp430-elf/4.9.1/430/libgcc.a(_divdi3.o) (__ashldi3)
/home/omn/ti/gcc/bin/../lib/gcc/msp430-elf/4.9.1/430/libgcc.a(_clzdi2.o)
                              /home/omn/ti/gcc/bin/../lib/gcc/msp430-elf/4.9.1/430/libgcc.a(_divdi3.o) (__clzdi2)
/home/omn/ti/gcc/bin/../lib/gcc/msp430-elf/4.9.1/430/libgcc.a(_clz.o)
                              /home/omn/ti/gcc/bin/../lib/gcc/msp430-elf/4.9.1/430/libgcc.a(_clzdi2.o) (__clz_tab)
/home/omn/ti/gcc/bin/../lib/gcc/msp430-elf/4.9.1/../../../../msp430-elf/lib/430/libc.a(lib_a-memset.o)
                              ./metrology-background.o (memset)
/home/omn/ti/gcc/bin/../lib/gcc/msp430-elf/4.9.1/../../../../msp430-elf/lib/430/libcrt.a(crt_bss.o)
                              /home/omn/ti/gcc/bin/../lib/gcc/msp430-elf/4.9.1/430/crtbegin.o (__crt0_init_bss)
/home/omn/ti/gcc/bin/../lib/gcc/msp430-elf/4.9.1/../../../../msp430-elf/lib/430/libcrt.a(crt_movedata.o)
                              /home/omn/ti/gcc/bin/../lib/gcc/msp430-elf/4.9.1/430/crtbegin.o (__crt0_movedata)
/home/omn/ti/gcc/bin/../lib/gcc/msp430-elf/4.9.1/../../../../msp430-elf/lib/430/libcrt.a(crt_main.o)
                              /home/omn/ti/gcc/bin/../lib/gcc/msp430-elf/4.9.1/../../../../msp430-elf/lib/430/crt0.o (__crt0_call_init_then_main)
/home/omn/ti/gcc/bin/../lib/gcc/msp430-elf/4.9.1/../../../../msp430-elf/lib/430/libc.a(lib_a-memmove.o)
                              /home/omn/ti/gcc/bin/../lib/gcc/msp430-elf/4.9.1/../../../../msp430-elf/lib/430/libcrt.a(crt_movedata.o) (memmove)

Allokerer fælles symboler
Fælles symbol       størrelse         fil

metrology           0x84              ./metrology-background.o
v_hist              0x14a             ./metrology-background.o
status              0x2               ./metrology-background.o

Discarded input sections

 .group         0x00000000        0x8 ./toolkit/fastarithmetic.o
 .group         0x00000000        0x8 ./toolkit/fastarithmetic.o
 .group         0x00000000        0x8 ./toolkit/fastarithmetic.o
 .group         0x00000000        0x8 ./toolkit/fastarithmetic.o
 .group         0x00000000        0x8 ./driverlib/cs.o
 .group         0x00000000        0x8 ./driverlib/cs.o
 .group         0x00000000        0x8 ./driverlib/cs.o
 .group         0x00000000        0x8 ./driverlib/cs.o
 .group         0x00000000        0x8 ./driverlib/cs.o
 .group         0x00000000        0x8 ./driverlib/cs.o
 .group         0x00000000        0x8 ./driverlib/cs.o
 .group         0x00000000        0x8 ./driverlib/cs.o
 .group         0x00000000        0x8 ./driverlib/cs.o
 .group         0x00000000        0x8 ./driverlib/cs.o
 .group         0x00000000        0x8 ./driverlib/cs.o
 .group         0x00000000        0x8 ./driverlib/cs.o
 .group         0x00000000        0x8 ./driverlib/cs.o
 .group         0x00000000        0x8 ./driverlib/cs.o
 .group         0x00000000        0x8 ./driverlib/cs.o
 .group         0x00000000        0x8 ./driverlib/cs.o
 .group         0x00000000        0x8 ./driverlib/cs.o
 .group         0x00000000        0x8 ./driverlib/cs.o
 .group         0x00000000        0x8 ./driverlib/cs.o
 .debug_macro   0x00000000      0x4f6 ./driverlib/cs.o
 .debug_macro   0x00000000       0x16 ./driverlib/cs.o
 .debug_macro   0x00000000       0x44 ./driverlib/cs.o
 .debug_macro   0x00000000      0x209 ./driverlib/cs.o
 .group         0x00000000        0x8 ./driverlib/eusci_a_spi.o
 .group         0x00000000        0x8 ./driverlib/eusci_a_spi.o
 .group         0x00000000        0x8 ./driverlib/eusci_a_spi.o
 .group         0x00000000        0x8 ./driverlib/eusci_a_spi.o
 .group         0x00000000        0x8 ./driverlib/eusci_a_spi.o
 .group         0x00000000        0x8 ./driverlib/eusci_a_spi.o
 .group         0x00000000        0x8 ./driverlib/eusci_a_spi.o
 .group         0x00000000        0x8 ./driverlib/eusci_a_spi.o
 .group         0x00000000        0x8 ./driverlib/eusci_a_spi.o
 .group         0x00000000        0x8 ./driverlib/eusci_a_spi.o
 .group         0x00000000        0x8 ./driverlib/eusci_a_spi.o
 .group         0x00000000        0x8 ./driverlib/eusci_a_spi.o
 .group         0x00000000        0x8 ./driverlib/eusci_a_spi.o
 .group         0x00000000        0x8 ./driverlib/eusci_a_spi.o
 .group         0x00000000        0x8 ./driverlib/eusci_a_spi.o
 .group         0x00000000        0x8 ./driverlib/eusci_a_spi.o
 .group         0x00000000        0x8 ./driverlib/eusci_a_spi.o
 .group         0x00000000        0x8 ./driverlib/eusci_a_spi.o
 .group         0x00000000        0x8 ./driverlib/eusci_a_spi.o
 .debug_macro   0x00000000      0x4f6 ./driverlib/eusci_a_spi.o
 .debug_macro   0x00000000       0x10 ./driverlib/eusci_a_spi.o
 .debug_macro   0x00000000       0x16 ./driverlib/eusci_a_spi.o
 .debug_macro   0x00000000       0x58 ./driverlib/eusci_a_spi.o
 .debug_macro   0x00000000       0xb8 ./driverlib/eusci_a_spi.o
 .debug_macro   0x00000000      0x1ed ./driverlib/eusci_a_spi.o
 .debug_macro   0x00000000     0x1968 ./driverlib/eusci_a_spi.o
 .debug_macro   0x00000000     0x1c18 ./driverlib/eusci_a_spi.o
 .debug_macro   0x00000000       0x16 ./driverlib/eusci_a_spi.o
 .debug_macro   0x00000000       0x44 ./driverlib/eusci_a_spi.o
 .debug_macro   0x00000000      0x209 ./driverlib/eusci_a_spi.o
 .debug_macro   0x00000000       0x22 ./driverlib/eusci_a_spi.o
 .debug_macro   0x00000000       0x28 ./driverlib/eusci_a_spi.o
 .debug_macro   0x00000000       0x4c ./driverlib/eusci_a_spi.o
 .debug_macro   0x00000000       0x12 ./driverlib/eusci_a_spi.o
 .debug_macro   0x00000000       0x43 ./driverlib/eusci_a_spi.o
 .debug_macro   0x00000000       0xa3 ./driverlib/eusci_a_spi.o
 .debug_macro   0x00000000       0x10 ./driverlib/eusci_a_spi.o
 .group         0x00000000        0x8 ./driverlib/eusci_a_uart.o
 .group         0x00000000        0x8 ./driverlib/eusci_a_uart.o
 .group         0x00000000        0x8 ./driverlib/eusci_a_uart.o
 .group         0x00000000        0x8 ./driverlib/eusci_a_uart.o
 .group         0x00000000        0x8 ./driverlib/eusci_a_uart.o
 .group         0x00000000        0x8 ./driverlib/eusci_a_uart.o
 .group         0x00000000        0x8 ./driverlib/eusci_a_uart.o
 .group         0x00000000        0x8 ./driverlib/eusci_a_uart.o
 .group         0x00000000        0x8 ./driverlib/eusci_a_uart.o
 .group         0x00000000        0x8 ./driverlib/eusci_a_uart.o
 .group         0x00000000        0x8 ./driverlib/eusci_a_uart.o
 .group         0x00000000        0x8 ./driverlib/eusci_a_uart.o
 .group         0x00000000        0x8 ./driverlib/eusci_a_uart.o
 .group         0x00000000        0x8 ./driverlib/eusci_a_uart.o
 .group         0x00000000        0x8 ./driverlib/eusci_a_uart.o
 .group         0x00000000        0x8 ./driverlib/eusci_a_uart.o
 .group         0x00000000        0x8 ./driverlib/eusci_a_uart.o
 .group         0x00000000        0x8 ./driverlib/eusci_a_uart.o
 .group         0x00000000        0x8 ./driverlib/eusci_a_uart.o
 .debug_macro   0x00000000      0x4f6 ./driverlib/eusci_a_uart.o
 .debug_macro   0x00000000       0x10 ./driverlib/eusci_a_uart.o
 .debug_macro   0x00000000       0x16 ./driverlib/eusci_a_uart.o
 .debug_macro   0x00000000       0x58 ./driverlib/eusci_a_uart.o
 .debug_macro   0x00000000       0xb8 ./driverlib/eusci_a_uart.o
 .debug_macro   0x00000000      0x1ed ./driverlib/eusci_a_uart.o
 .debug_macro   0x00000000     0x1968 ./driverlib/eusci_a_uart.o
 .debug_macro   0x00000000     0x1c18 ./driverlib/eusci_a_uart.o
 .debug_macro   0x00000000       0x16 ./driverlib/eusci_a_uart.o
 .debug_macro   0x00000000       0x44 ./driverlib/eusci_a_uart.o
 .debug_macro   0x00000000      0x209 ./driverlib/eusci_a_uart.o
 .debug_macro   0x00000000       0x22 ./driverlib/eusci_a_uart.o
 .debug_macro   0x00000000       0x28 ./driverlib/eusci_a_uart.o
 .debug_macro   0x00000000       0x4c ./driverlib/eusci_a_uart.o
 .debug_macro   0x00000000       0x12 ./driverlib/eusci_a_uart.o
 .debug_macro   0x00000000       0x43 ./driverlib/eusci_a_uart.o
 .debug_macro   0x00000000       0xa3 ./driverlib/eusci_a_uart.o
 .debug_macro   0x00000000       0x10 ./driverlib/eusci_a_uart.o
 .group         0x00000000        0x8 ./driverlib/eusci_b_i2c.o
 .group         0x00000000        0x8 ./driverlib/eusci_b_i2c.o
 .group         0x00000000        0x8 ./driverlib/eusci_b_i2c.o
 .group         0x00000000        0x8 ./driverlib/eusci_b_i2c.o
 .group         0x00000000        0x8 ./driverlib/eusci_b_i2c.o
 .group         0x00000000        0x8 ./driverlib/eusci_b_i2c.o
 .group         0x00000000        0x8 ./driverlib/eusci_b_i2c.o
 .group         0x00000000        0x8 ./driverlib/eusci_b_i2c.o
 .group         0x00000000        0x8 ./driverlib/eusci_b_i2c.o
 .group         0x00000000        0x8 ./driverlib/eusci_b_i2c.o
 .group         0x00000000        0x8 ./driverlib/eusci_b_i2c.o
 .group         0x00000000        0x8 ./driverlib/eusci_b_i2c.o
 .group         0x00000000        0x8 ./driverlib/eusci_b_i2c.o
 .group         0x00000000        0x8 ./driverlib/eusci_b_i2c.o
 .group         0x00000000        0x8 ./driverlib/eusci_b_i2c.o
 .group         0x00000000        0x8 ./driverlib/eusci_b_i2c.o
 .group         0x00000000        0x8 ./driverlib/eusci_b_i2c.o
 .group         0x00000000        0x8 ./driverlib/eusci_b_i2c.o
 .group         0x00000000        0x8 ./driverlib/eusci_b_i2c.o
 .debug_macro   0x00000000      0x4f6 ./driverlib/eusci_b_i2c.o
 .debug_macro   0x00000000       0x10 ./driverlib/eusci_b_i2c.o
 .debug_macro   0x00000000       0x16 ./driverlib/eusci_b_i2c.o
 .debug_macro   0x00000000       0x58 ./driverlib/eusci_b_i2c.o
 .debug_macro   0x00000000       0xb8 ./driverlib/eusci_b_i2c.o
 .debug_macro   0x00000000      0x1ed ./driverlib/eusci_b_i2c.o
 .debug_macro   0x00000000     0x1968 ./driverlib/eusci_b_i2c.o
 .debug_macro   0x00000000     0x1c18 ./driverlib/eusci_b_i2c.o
 .debug_macro   0x00000000       0x16 ./driverlib/eusci_b_i2c.o
 .debug_macro   0x00000000       0x44 ./driverlib/eusci_b_i2c.o
 .debug_macro   0x00000000      0x209 ./driverlib/eusci_b_i2c.o
 .debug_macro   0x00000000       0x22 ./driverlib/eusci_b_i2c.o
 .debug_macro   0x00000000       0x28 ./driverlib/eusci_b_i2c.o
 .debug_macro   0x00000000       0x4c ./driverlib/eusci_b_i2c.o
 .debug_macro   0x00000000       0x12 ./driverlib/eusci_b_i2c.o
 .debug_macro   0x00000000       0x43 ./driverlib/eusci_b_i2c.o
 .debug_macro   0x00000000       0xa3 ./driverlib/eusci_b_i2c.o
 .debug_macro   0x00000000       0x10 ./driverlib/eusci_b_i2c.o
 .group         0x00000000        0x8 ./driverlib/eusci_b_spi.o
 .group         0x00000000        0x8 ./driverlib/eusci_b_spi.o
 .group         0x00000000        0x8 ./driverlib/eusci_b_spi.o
 .group         0x00000000        0x8 ./driverlib/eusci_b_spi.o
 .group         0x00000000        0x8 ./driverlib/eusci_b_spi.o
 .group         0x00000000        0x8 ./driverlib/eusci_b_spi.o
 .group         0x00000000        0x8 ./driverlib/eusci_b_spi.o
 .group         0x00000000        0x8 ./driverlib/eusci_b_spi.o
 .group         0x00000000        0x8 ./driverlib/eusci_b_spi.o
 .group         0x00000000        0x8 ./driverlib/eusci_b_spi.o
 .group         0x00000000        0x8 ./driverlib/eusci_b_spi.o
 .group         0x00000000        0x8 ./driverlib/eusci_b_spi.o
 .group         0x00000000        0x8 ./driverlib/eusci_b_spi.o
 .group         0x00000000        0x8 ./driverlib/eusci_b_spi.o
 .group         0x00000000        0x8 ./driverlib/eusci_b_spi.o
 .group         0x00000000        0x8 ./driverlib/eusci_b_spi.o
 .group         0x00000000        0x8 ./driverlib/eusci_b_spi.o
 .group         0x00000000        0x8 ./driverlib/eusci_b_spi.o
 .group         0x00000000        0x8 ./driverlib/eusci_b_spi.o
 .debug_macro   0x00000000      0x4f6 ./driverlib/eusci_b_spi.o
 .debug_macro   0x00000000       0x10 ./driverlib/eusci_b_spi.o
 .debug_macro   0x00000000       0x16 ./driverlib/eusci_b_spi.o
 .debug_macro   0x00000000       0x58 ./driverlib/eusci_b_spi.o
 .debug_macro   0x00000000       0xb8 ./driverlib/eusci_b_spi.o
 .debug_macro   0x00000000      0x1ed ./driverlib/eusci_b_spi.o
 .debug_macro   0x00000000     0x1968 ./driverlib/eusci_b_spi.o
 .debug_macro   0x00000000     0x1c18 ./driverlib/eusci_b_spi.o
 .debug_macro   0x00000000       0x16 ./driverlib/eusci_b_spi.o
 .debug_macro   0x00000000       0x44 ./driverlib/eusci_b_spi.o
 .debug_macro   0x00000000      0x209 ./driverlib/eusci_b_spi.o
 .debug_macro   0x00000000       0x22 ./driverlib/eusci_b_spi.o
 .debug_macro   0x00000000       0x28 ./driverlib/eusci_b_spi.o
 .debug_macro   0x00000000       0x4c ./driverlib/eusci_b_spi.o
 .debug_macro   0x00000000       0x12 ./driverlib/eusci_b_spi.o
 .debug_macro   0x00000000       0x43 ./driverlib/eusci_b_spi.o
 .debug_macro   0x00000000       0xa3 ./driverlib/eusci_b_spi.o
 .debug_macro   0x00000000       0x10 ./driverlib/eusci_b_spi.o
 .group         0x00000000        0x8 ./driverlib/flashctl.o
 .group         0x00000000        0x8 ./driverlib/flashctl.o
 .group         0x00000000        0x8 ./driverlib/flashctl.o
 .group         0x00000000        0x8 ./driverlib/flashctl.o
 .group         0x00000000        0x8 ./driverlib/flashctl.o
 .group         0x00000000        0x8 ./driverlib/flashctl.o
 .group         0x00000000        0x8 ./driverlib/flashctl.o
 .group         0x00000000        0x8 ./driverlib/flashctl.o
 .group         0x00000000        0x8 ./driverlib/flashctl.o
 .group         0x00000000        0x8 ./driverlib/flashctl.o
 .group         0x00000000        0x8 ./driverlib/flashctl.o
 .group         0x00000000        0x8 ./driverlib/flashctl.o
 .group         0x00000000        0x8 ./driverlib/flashctl.o
 .group         0x00000000        0x8 ./driverlib/flashctl.o
 .group         0x00000000        0x8 ./driverlib/flashctl.o
 .group         0x00000000        0x8 ./driverlib/flashctl.o
 .group         0x00000000        0x8 ./driverlib/flashctl.o
 .group         0x00000000        0x8 ./driverlib/flashctl.o
 .group         0x00000000        0x8 ./driverlib/flashctl.o
 .debug_macro   0x00000000      0x4f6 ./driverlib/flashctl.o
 .debug_macro   0x00000000       0x10 ./driverlib/flashctl.o
 .debug_macro   0x00000000       0x16 ./driverlib/flashctl.o
 .debug_macro   0x00000000       0x58 ./driverlib/flashctl.o
 .debug_macro   0x00000000       0xb8 ./driverlib/flashctl.o
 .debug_macro   0x00000000      0x1ed ./driverlib/flashctl.o
 .debug_macro   0x00000000     0x1968 ./driverlib/flashctl.o
 .debug_macro   0x00000000     0x1c18 ./driverlib/flashctl.o
 .debug_macro   0x00000000       0x16 ./driverlib/flashctl.o
 .debug_macro   0x00000000       0x44 ./driverlib/flashctl.o
 .debug_macro   0x00000000      0x209 ./driverlib/flashctl.o
 .debug_macro   0x00000000       0x22 ./driverlib/flashctl.o
 .debug_macro   0x00000000       0x28 ./driverlib/flashctl.o
 .debug_macro   0x00000000       0x4c ./driverlib/flashctl.o
 .debug_macro   0x00000000       0x12 ./driverlib/flashctl.o
 .debug_macro   0x00000000       0x43 ./driverlib/flashctl.o
 .debug_macro   0x00000000       0xa3 ./driverlib/flashctl.o
 .debug_macro   0x00000000       0x10 ./driverlib/flashctl.o
 .group         0x00000000        0x8 ./driverlib/gpio.o
 .group         0x00000000        0x8 ./driverlib/gpio.o
 .group         0x00000000        0x8 ./driverlib/gpio.o
 .group         0x00000000        0x8 ./driverlib/gpio.o
 .group         0x00000000        0x8 ./driverlib/gpio.o
 .group         0x00000000        0x8 ./driverlib/gpio.o
 .group         0x00000000        0x8 ./driverlib/gpio.o
 .group         0x00000000        0x8 ./driverlib/gpio.o
 .group         0x00000000        0x8 ./driverlib/gpio.o
 .group         0x00000000        0x8 ./driverlib/gpio.o
 .group         0x00000000        0x8 ./driverlib/gpio.o
 .group         0x00000000        0x8 ./driverlib/gpio.o
 .group         0x00000000        0x8 ./driverlib/gpio.o
 .group         0x00000000        0x8 ./driverlib/gpio.o
 .group         0x00000000        0x8 ./driverlib/gpio.o
 .group         0x00000000        0x8 ./driverlib/gpio.o
 .group         0x00000000        0x8 ./driverlib/gpio.o
 .group         0x00000000        0x8 ./driverlib/gpio.o
 .group         0x00000000        0x8 ./driverlib/gpio.o
 .debug_macro   0x00000000      0x4f6 ./driverlib/gpio.o
 .debug_macro   0x00000000       0x10 ./driverlib/gpio.o
 .debug_macro   0x00000000       0x16 ./driverlib/gpio.o
 .debug_macro   0x00000000       0x58 ./driverlib/gpio.o
 .debug_macro   0x00000000       0xb8 ./driverlib/gpio.o
 .debug_macro   0x00000000      0x1ed ./driverlib/gpio.o
 .debug_macro   0x00000000     0x1968 ./driverlib/gpio.o
 .debug_macro   0x00000000     0x1c18 ./driverlib/gpio.o
 .debug_macro   0x00000000       0x16 ./driverlib/gpio.o
 .debug_macro   0x00000000       0x44 ./driverlib/gpio.o
 .debug_macro   0x00000000      0x209 ./driverlib/gpio.o
 .debug_macro   0x00000000       0x22 ./driverlib/gpio.o
 .debug_macro   0x00000000       0x28 ./driverlib/gpio.o
 .debug_macro   0x00000000       0x4c ./driverlib/gpio.o
 .debug_macro   0x00000000       0x12 ./driverlib/gpio.o
 .debug_macro   0x00000000       0x43 ./driverlib/gpio.o
 .debug_macro   0x00000000       0xa3 ./driverlib/gpio.o
 .debug_macro   0x00000000       0x10 ./driverlib/gpio.o
 .group         0x00000000        0x8 ./driverlib/mpy.o
 .group         0x00000000        0x8 ./driverlib/mpy.o
 .group         0x00000000        0x8 ./driverlib/mpy.o
 .group         0x00000000        0x8 ./driverlib/mpy.o
 .group         0x00000000        0x8 ./driverlib/mpy.o
 .group         0x00000000        0x8 ./driverlib/mpy.o
 .group         0x00000000        0x8 ./driverlib/mpy.o
 .group         0x00000000        0x8 ./driverlib/mpy.o
 .group         0x00000000        0x8 ./driverlib/mpy.o
 .group         0x00000000        0x8 ./driverlib/mpy.o
 .group         0x00000000        0x8 ./driverlib/mpy.o
 .group         0x00000000        0x8 ./driverlib/mpy.o
 .group         0x00000000        0x8 ./driverlib/mpy.o
 .group         0x00000000        0x8 ./driverlib/mpy.o
 .group         0x00000000        0x8 ./driverlib/mpy.o
 .group         0x00000000        0x8 ./driverlib/mpy.o
 .group         0x00000000        0x8 ./driverlib/mpy.o
 .group         0x00000000        0x8 ./driverlib/mpy.o
 .group         0x00000000        0x8 ./driverlib/mpy.o
 .debug_macro   0x00000000      0x4f6 ./driverlib/mpy.o
 .debug_macro   0x00000000       0x10 ./driverlib/mpy.o
 .debug_macro   0x00000000       0x16 ./driverlib/mpy.o
 .debug_macro   0x00000000       0x58 ./driverlib/mpy.o
 .debug_macro   0x00000000       0xb8 ./driverlib/mpy.o
 .debug_macro   0x00000000      0x1ed ./driverlib/mpy.o
 .debug_macro   0x00000000     0x1968 ./driverlib/mpy.o
 .debug_macro   0x00000000     0x1c18 ./driverlib/mpy.o
 .debug_macro   0x00000000       0x16 ./driverlib/mpy.o
 .debug_macro   0x00000000       0x44 ./driverlib/mpy.o
 .debug_macro   0x00000000      0x209 ./driverlib/mpy.o
 .debug_macro   0x00000000       0x22 ./driverlib/mpy.o
 .debug_macro   0x00000000       0x28 ./driverlib/mpy.o
 .debug_macro   0x00000000       0x4c ./driverlib/mpy.o
 .debug_macro   0x00000000       0x12 ./driverlib/mpy.o
 .debug_macro   0x00000000       0x43 ./driverlib/mpy.o
 .debug_macro   0x00000000       0xa3 ./driverlib/mpy.o
 .debug_macro   0x00000000       0x10 ./driverlib/mpy.o
 .group         0x00000000        0x8 ./driverlib/pmm.o
 .group         0x00000000        0x8 ./driverlib/pmm.o
 .group         0x00000000        0x8 ./driverlib/pmm.o
 .group         0x00000000        0x8 ./driverlib/pmm.o
 .group         0x00000000        0x8 ./driverlib/pmm.o
 .group         0x00000000        0x8 ./driverlib/pmm.o
 .group         0x00000000        0x8 ./driverlib/pmm.o
 .group         0x00000000        0x8 ./driverlib/pmm.o
 .group         0x00000000        0x8 ./driverlib/pmm.o
 .group         0x00000000        0x8 ./driverlib/pmm.o
 .group         0x00000000        0x8 ./driverlib/pmm.o
 .group         0x00000000        0x8 ./driverlib/pmm.o
 .group         0x00000000        0x8 ./driverlib/pmm.o
 .group         0x00000000        0x8 ./driverlib/pmm.o
 .group         0x00000000        0x8 ./driverlib/pmm.o
 .group         0x00000000        0x8 ./driverlib/pmm.o
 .group         0x00000000        0x8 ./driverlib/pmm.o
 .group         0x00000000        0x8 ./driverlib/pmm.o
 .group         0x00000000        0x8 ./driverlib/pmm.o
 .debug_macro   0x00000000      0x4f6 ./driverlib/pmm.o
 .debug_macro   0x00000000       0x10 ./driverlib/pmm.o
 .debug_macro   0x00000000       0x16 ./driverlib/pmm.o
 .debug_macro   0x00000000       0x58 ./driverlib/pmm.o
 .debug_macro   0x00000000       0xb8 ./driverlib/pmm.o
 .debug_macro   0x00000000      0x1ed ./driverlib/pmm.o
 .debug_macro   0x00000000     0x1968 ./driverlib/pmm.o
 .debug_macro   0x00000000     0x1c18 ./driverlib/pmm.o
 .debug_macro   0x00000000       0x16 ./driverlib/pmm.o
 .debug_macro   0x00000000       0x44 ./driverlib/pmm.o
 .debug_macro   0x00000000      0x209 ./driverlib/pmm.o
 .debug_macro   0x00000000       0x22 ./driverlib/pmm.o
 .debug_macro   0x00000000       0x28 ./driverlib/pmm.o
 .debug_macro   0x00000000       0x4c ./driverlib/pmm.o
 .debug_macro   0x00000000       0x12 ./driverlib/pmm.o
 .debug_macro   0x00000000       0x43 ./driverlib/pmm.o
 .debug_macro   0x00000000       0xa3 ./driverlib/pmm.o
 .debug_macro   0x00000000       0x10 ./driverlib/pmm.o
 .group         0x00000000        0x8 ./driverlib/sd24.o
 .group         0x00000000        0x8 ./driverlib/sd24.o
 .group         0x00000000        0x8 ./driverlib/sd24.o
 .group         0x00000000        0x8 ./driverlib/sd24.o
 .group         0x00000000        0x8 ./driverlib/sd24.o
 .group         0x00000000        0x8 ./driverlib/sd24.o
 .group         0x00000000        0x8 ./driverlib/sd24.o
 .group         0x00000000        0x8 ./driverlib/sd24.o
 .group         0x00000000        0x8 ./driverlib/sd24.o
 .group         0x00000000        0x8 ./driverlib/sd24.o
 .group         0x00000000        0x8 ./driverlib/sd24.o
 .group         0x00000000        0x8 ./driverlib/sd24.o
 .group         0x00000000        0x8 ./driverlib/sd24.o
 .group         0x00000000        0x8 ./driverlib/sd24.o
 .group         0x00000000        0x8 ./driverlib/sd24.o
 .group         0x00000000        0x8 ./driverlib/sd24.o
 .group         0x00000000        0x8 ./driverlib/sd24.o
 .group         0x00000000        0x8 ./driverlib/sd24.o
 .group         0x00000000        0x8 ./driverlib/sd24.o
 .debug_macro   0x00000000      0x4f6 ./driverlib/sd24.o
 .debug_macro   0x00000000       0x10 ./driverlib/sd24.o
 .debug_macro   0x00000000       0x16 ./driverlib/sd24.o
 .debug_macro   0x00000000       0x58 ./driverlib/sd24.o
 .debug_macro   0x00000000       0xb8 ./driverlib/sd24.o
 .debug_macro   0x00000000      0x1ed ./driverlib/sd24.o
 .debug_macro   0x00000000     0x1968 ./driverlib/sd24.o
 .debug_macro   0x00000000     0x1c18 ./driverlib/sd24.o
 .debug_macro   0x00000000       0x16 ./driverlib/sd24.o
 .debug_macro   0x00000000       0x44 ./driverlib/sd24.o
 .debug_macro   0x00000000      0x209 ./driverlib/sd24.o
 .debug_macro   0x00000000       0x22 ./driverlib/sd24.o
 .debug_macro   0x00000000       0x28 ./driverlib/sd24.o
 .debug_macro   0x00000000       0x4c ./driverlib/sd24.o
 .debug_macro   0x00000000       0x12 ./driverlib/sd24.o
 .debug_macro   0x00000000       0x43 ./driverlib/sd24.o
 .debug_macro   0x00000000       0xa3 ./driverlib/sd24.o
 .debug_macro   0x00000000       0x10 ./driverlib/sd24.o
 .group         0x00000000        0x8 ./driverlib/sfr.o
 .group         0x00000000        0x8 ./driverlib/sfr.o
 .group         0x00000000        0x8 ./driverlib/sfr.o
 .group         0x00000000        0x8 ./driverlib/sfr.o
 .group         0x00000000        0x8 ./driverlib/sfr.o
 .group         0x00000000        0x8 ./driverlib/sfr.o
 .group         0x00000000        0x8 ./driverlib/sfr.o
 .group         0x00000000        0x8 ./driverlib/sfr.o
 .group         0x00000000        0x8 ./driverlib/sfr.o
 .group         0x00000000        0x8 ./driverlib/sfr.o
 .group         0x00000000        0x8 ./driverlib/sfr.o
 .group         0x00000000        0x8 ./driverlib/sfr.o
 .group         0x00000000        0x8 ./driverlib/sfr.o
 .group         0x00000000        0x8 ./driverlib/sfr.o
 .group         0x00000000        0x8 ./driverlib/sfr.o
 .group         0x00000000        0x8 ./driverlib/sfr.o
 .group         0x00000000        0x8 ./driverlib/sfr.o
 .group         0x00000000        0x8 ./driverlib/sfr.o
 .group         0x00000000        0x8 ./driverlib/sfr.o
 .debug_macro   0x00000000      0x4f6 ./driverlib/sfr.o
 .debug_macro   0x00000000       0x10 ./driverlib/sfr.o
 .debug_macro   0x00000000       0x16 ./driverlib/sfr.o
 .debug_macro   0x00000000       0x58 ./driverlib/sfr.o
 .debug_macro   0x00000000       0xb8 ./driverlib/sfr.o
 .debug_macro   0x00000000      0x1ed ./driverlib/sfr.o
 .debug_macro   0x00000000     0x1968 ./driverlib/sfr.o
 .debug_macro   0x00000000     0x1c18 ./driverlib/sfr.o
 .debug_macro   0x00000000       0x16 ./driverlib/sfr.o
 .debug_macro   0x00000000       0x44 ./driverlib/sfr.o
 .debug_macro   0x00000000      0x209 ./driverlib/sfr.o
 .debug_macro   0x00000000       0x22 ./driverlib/sfr.o
 .debug_macro   0x00000000       0x28 ./driverlib/sfr.o
 .debug_macro   0x00000000       0x4c ./driverlib/sfr.o
 .debug_macro   0x00000000       0x12 ./driverlib/sfr.o
 .debug_macro   0x00000000       0x43 ./driverlib/sfr.o
 .debug_macro   0x00000000       0xa3 ./driverlib/sfr.o
 .debug_macro   0x00000000       0x10 ./driverlib/sfr.o
 .group         0x00000000        0x8 ./driverlib/timer_a.o
 .group         0x00000000        0x8 ./driverlib/timer_a.o
 .group         0x00000000        0x8 ./driverlib/timer_a.o
 .group         0x00000000        0x8 ./driverlib/timer_a.o
 .group         0x00000000        0x8 ./driverlib/timer_a.o
 .group         0x00000000        0x8 ./driverlib/timer_a.o
 .group         0x00000000        0x8 ./driverlib/timer_a.o
 .group         0x00000000        0x8 ./driverlib/timer_a.o
 .group         0x00000000        0x8 ./driverlib/timer_a.o
 .group         0x00000000        0x8 ./driverlib/timer_a.o
 .group         0x00000000        0x8 ./driverlib/timer_a.o
 .group         0x00000000        0x8 ./driverlib/timer_a.o
 .group         0x00000000        0x8 ./driverlib/timer_a.o
 .group         0x00000000        0x8 ./driverlib/timer_a.o
 .group         0x00000000        0x8 ./driverlib/timer_a.o
 .group         0x00000000        0x8 ./driverlib/timer_a.o
 .group         0x00000000        0x8 ./driverlib/timer_a.o
 .group         0x00000000        0x8 ./driverlib/timer_a.o
 .group         0x00000000        0x8 ./driverlib/timer_a.o
 .debug_macro   0x00000000      0x4f6 ./driverlib/timer_a.o
 .debug_macro   0x00000000       0x10 ./driverlib/timer_a.o
 .debug_macro   0x00000000       0x16 ./driverlib/timer_a.o
 .debug_macro   0x00000000       0x58 ./driverlib/timer_a.o
 .debug_macro   0x00000000       0xb8 ./driverlib/timer_a.o
 .debug_macro   0x00000000      0x1ed ./driverlib/timer_a.o
 .debug_macro   0x00000000     0x1968 ./driverlib/timer_a.o
 .debug_macro   0x00000000     0x1c18 ./driverlib/timer_a.o
 .debug_macro   0x00000000       0x16 ./driverlib/timer_a.o
 .debug_macro   0x00000000       0x44 ./driverlib/timer_a.o
 .debug_macro   0x00000000      0x209 ./driverlib/timer_a.o
 .debug_macro   0x00000000       0x22 ./driverlib/timer_a.o
 .debug_macro   0x00000000       0x28 ./driverlib/timer_a.o
 .debug_macro   0x00000000       0x4c ./driverlib/timer_a.o
 .debug_macro   0x00000000       0x12 ./driverlib/timer_a.o
 .debug_macro   0x00000000       0x43 ./driverlib/timer_a.o
 .debug_macro   0x00000000       0xa3 ./driverlib/timer_a.o
 .debug_macro   0x00000000       0x10 ./driverlib/timer_a.o
 .group         0x00000000        0x8 ./driverlib/tlv.o
 .group         0x00000000        0x8 ./driverlib/tlv.o
 .group         0x00000000        0x8 ./driverlib/tlv.o
 .group         0x00000000        0x8 ./driverlib/tlv.o
 .group         0x00000000        0x8 ./driverlib/tlv.o
 .group         0x00000000        0x8 ./driverlib/tlv.o
 .group         0x00000000        0x8 ./driverlib/tlv.o
 .group         0x00000000        0x8 ./driverlib/tlv.o
 .group         0x00000000        0x8 ./driverlib/tlv.o
 .group         0x00000000        0x8 ./driverlib/tlv.o
 .group         0x00000000        0x8 ./driverlib/tlv.o
 .group         0x00000000        0x8 ./driverlib/tlv.o
 .group         0x00000000        0x8 ./driverlib/tlv.o
 .group         0x00000000        0x8 ./driverlib/tlv.o
 .group         0x00000000        0x8 ./driverlib/tlv.o
 .group         0x00000000        0x8 ./driverlib/tlv.o
 .group         0x00000000        0x8 ./driverlib/tlv.o
 .group         0x00000000        0x8 ./driverlib/tlv.o
 .group         0x00000000        0x8 ./driverlib/tlv.o
 .debug_macro   0x00000000      0x4f6 ./driverlib/tlv.o
 .debug_macro   0x00000000       0x10 ./driverlib/tlv.o
 .debug_macro   0x00000000       0x16 ./driverlib/tlv.o
 .debug_macro   0x00000000       0x58 ./driverlib/tlv.o
 .debug_macro   0x00000000       0xb8 ./driverlib/tlv.o
 .debug_macro   0x00000000      0x1ed ./driverlib/tlv.o
 .debug_macro   0x00000000     0x1968 ./driverlib/tlv.o
 .debug_macro   0x00000000     0x1c18 ./driverlib/tlv.o
 .debug_macro   0x00000000       0x16 ./driverlib/tlv.o
 .debug_macro   0x00000000       0x44 ./driverlib/tlv.o
 .debug_macro   0x00000000      0x209 ./driverlib/tlv.o
 .debug_macro   0x00000000       0x22 ./driverlib/tlv.o
 .debug_macro   0x00000000       0x28 ./driverlib/tlv.o
 .debug_macro   0x00000000       0x4c ./driverlib/tlv.o
 .debug_macro   0x00000000       0x12 ./driverlib/tlv.o
 .debug_macro   0x00000000       0x43 ./driverlib/tlv.o
 .debug_macro   0x00000000       0xa3 ./driverlib/tlv.o
 .debug_macro   0x00000000       0x10 ./driverlib/tlv.o
 .group         0x00000000        0x8 ./driverlib/wdt.o
 .group         0x00000000        0x8 ./driverlib/wdt.o
 .group         0x00000000        0x8 ./driverlib/wdt.o
 .group         0x00000000        0x8 ./driverlib/wdt.o
 .group         0x00000000        0x8 ./driverlib/wdt.o
 .group         0x00000000        0x8 ./driverlib/wdt.o
 .group         0x00000000        0x8 ./driverlib/wdt.o
 .group         0x00000000        0x8 ./driverlib/wdt.o
 .group         0x00000000        0x8 ./driverlib/wdt.o
 .group         0x00000000        0x8 ./driverlib/wdt.o
 .group         0x00000000        0x8 ./driverlib/wdt.o
 .group         0x00000000        0x8 ./driverlib/wdt.o
 .group         0x00000000        0x8 ./driverlib/wdt.o
 .group         0x00000000        0x8 ./driverlib/wdt.o
 .group         0x00000000        0x8 ./driverlib/wdt.o
 .group         0x00000000        0x8 ./driverlib/wdt.o
 .group         0x00000000        0x8 ./driverlib/wdt.o
 .group         0x00000000        0x8 ./driverlib/wdt.o
 .group         0x00000000        0x8 ./driverlib/wdt.o
 .debug_macro   0x00000000      0x4f6 ./driverlib/wdt.o
 .debug_macro   0x00000000       0x10 ./driverlib/wdt.o
 .debug_macro   0x00000000       0x16 ./driverlib/wdt.o
 .debug_macro   0x00000000       0x58 ./driverlib/wdt.o
 .debug_macro   0x00000000       0xb8 ./driverlib/wdt.o
 .debug_macro   0x00000000      0x1ed ./driverlib/wdt.o
 .debug_macro   0x00000000     0x1968 ./driverlib/wdt.o
 .debug_macro   0x00000000     0x1c18 ./driverlib/wdt.o
 .debug_macro   0x00000000       0x16 ./driverlib/wdt.o
 .debug_macro   0x00000000       0x44 ./driverlib/wdt.o
 .debug_macro   0x00000000      0x209 ./driverlib/wdt.o
 .debug_macro   0x00000000       0x22 ./driverlib/wdt.o
 .debug_macro   0x00000000       0x28 ./driverlib/wdt.o
 .debug_macro   0x00000000       0x4c ./driverlib/wdt.o
 .debug_macro   0x00000000       0x12 ./driverlib/wdt.o
 .debug_macro   0x00000000       0x43 ./driverlib/wdt.o
 .debug_macro   0x00000000       0xa3 ./driverlib/wdt.o
 .debug_macro   0x00000000       0x10 ./driverlib/wdt.o
 .group         0x00000000        0x8 ./communication.o
 .group         0x00000000        0x8 ./communication.o
 .group         0x00000000        0x8 ./communication.o
 .group         0x00000000        0x8 ./communication.o
 .group         0x00000000        0x8 ./communication.o
 .group         0x00000000        0x8 ./communication.o
 .group         0x00000000        0x8 ./communication.o
 .group         0x00000000        0x8 ./communication.o
 .group         0x00000000        0x8 ./communication.o
 .group         0x00000000        0x8 ./communication.o
 .group         0x00000000        0x8 ./communication.o
 .group         0x00000000        0x8 ./communication.o
 .group         0x00000000        0x8 ./communication.o
 .group         0x00000000        0x8 ./communication.o
 .group         0x00000000        0x8 ./communication.o
 .group         0x00000000        0x8 ./communication.o
 .group         0x00000000        0x8 ./communication.o
 .group         0x00000000        0x8 ./communication.o
 .group         0x00000000        0x8 ./communication.o
 .group         0x00000000        0x8 ./communication.o
 .group         0x00000000        0x8 ./communication.o
 .group         0x00000000        0x8 ./communication.o
 .group         0x00000000        0x8 ./communication.o
 .group         0x00000000        0x8 ./communication.o
 .group         0x00000000        0x8 ./communication.o
 .group         0x00000000        0x8 ./communication.o
 .group         0x00000000        0x8 ./communication.o
 .group         0x00000000        0x8 ./communication.o
 .debug_macro   0x00000000      0x4f6 ./communication.o
 .debug_macro   0x00000000       0x16 ./communication.o
 .debug_macro   0x00000000       0x44 ./communication.o
 .debug_macro   0x00000000      0x209 ./communication.o
 .debug_macro   0x00000000       0x10 ./communication.o
 .debug_macro   0x00000000       0x16 ./communication.o
 .debug_macro   0x00000000       0x58 ./communication.o
 .debug_macro   0x00000000       0xb8 ./communication.o
 .debug_macro   0x00000000      0x1ed ./communication.o
 .debug_macro   0x00000000     0x1968 ./communication.o
 .debug_macro   0x00000000     0x1c18 ./communication.o
 .debug_macro   0x00000000       0x22 ./communication.o
 .debug_macro   0x00000000       0x28 ./communication.o
 .debug_macro   0x00000000       0x4c ./communication.o
 .debug_macro   0x00000000       0x81 ./communication.o
 .debug_macro   0x00000000      0x11d ./communication.o
 .debug_macro   0x00000000      0x103 ./communication.o
 .debug_macro   0x00000000       0x81 ./communication.o
 .debug_macro   0x00000000       0x2e ./communication.o
 .debug_macro   0x00000000      0x110 ./communication.o
 .debug_macro   0x00000000       0x22 ./communication.o
 .debug_macro   0x00000000       0x40 ./communication.o
 .debug_macro   0x00000000       0xc5 ./communication.o
 .debug_macro   0x00000000       0x2e ./communication.o
 .debug_macro   0x00000000      0x175 ./communication.o
 .debug_macro   0x00000000       0x82 ./communication.o
 .debug_macro   0x00000000       0x2e ./communication.o
 .group         0x00000000        0x8 ./main.o
 .group         0x00000000        0x8 ./main.o
 .group         0x00000000        0x8 ./main.o
 .group         0x00000000        0x8 ./main.o
 .group         0x00000000        0x8 ./main.o
 .group         0x00000000        0x8 ./main.o
 .group         0x00000000        0x8 ./main.o
 .group         0x00000000        0x8 ./main.o
 .group         0x00000000        0x8 ./main.o
 .group         0x00000000        0x8 ./main.o
 .group         0x00000000        0x8 ./main.o
 .group         0x00000000        0x8 ./main.o
 .group         0x00000000        0x8 ./main.o
 .group         0x00000000        0x8 ./main.o
 .group         0x00000000        0x8 ./main.o
 .group         0x00000000        0x8 ./main.o
 .group         0x00000000        0x8 ./main.o
 .group         0x00000000        0x8 ./main.o
 .group         0x00000000        0x8 ./main.o
 .group         0x00000000        0x8 ./main.o
 .group         0x00000000        0x8 ./main.o
 .group         0x00000000        0x8 ./main.o
 .group         0x00000000        0x8 ./main.o
 .group         0x00000000        0x8 ./main.o
 .group         0x00000000        0x8 ./main.o
 .group         0x00000000        0x8 ./main.o
 .group         0x00000000        0x8 ./main.o
 .group         0x00000000        0x8 ./main.o
 .group         0x00000000        0x8 ./main.o
 .debug_macro   0x00000000      0x4f6 ./main.o
 .debug_macro   0x00000000       0x10 ./main.o
 .debug_macro   0x00000000       0x16 ./main.o
 .debug_macro   0x00000000       0x58 ./main.o
 .debug_macro   0x00000000       0xb8 ./main.o
 .debug_macro   0x00000000      0x1ed ./main.o
 .debug_macro   0x00000000     0x1968 ./main.o
 .debug_macro   0x00000000     0x1c18 ./main.o
 .debug_macro   0x00000000       0x16 ./main.o
 .debug_macro   0x00000000       0x44 ./main.o
 .debug_macro   0x00000000      0x209 ./main.o
 .debug_macro   0x00000000       0x22 ./main.o
 .debug_macro   0x00000000       0x28 ./main.o
 .debug_macro   0x00000000       0x4c ./main.o
 .debug_macro   0x00000000       0x81 ./main.o
 .debug_macro   0x00000000      0x11d ./main.o
 .debug_macro   0x00000000      0x103 ./main.o
 .debug_macro   0x00000000       0x81 ./main.o
 .debug_macro   0x00000000       0x2e ./main.o
 .debug_macro   0x00000000      0x110 ./main.o
 .debug_macro   0x00000000       0x22 ./main.o
 .debug_macro   0x00000000       0x40 ./main.o
 .debug_macro   0x00000000       0xc5 ./main.o
 .debug_macro   0x00000000       0x2e ./main.o
 .debug_macro   0x00000000      0x175 ./main.o
 .debug_macro   0x00000000       0x82 ./main.o
 .debug_macro   0x00000000       0x2e ./main.o
 .debug_macro   0x00000000       0x58 ./main.o
 .group         0x00000000        0x8 ./metrology-background.o
 .group         0x00000000        0x8 ./metrology-background.o
 .group         0x00000000        0x8 ./metrology-background.o
 .group         0x00000000        0x8 ./metrology-background.o
 .group         0x00000000        0x8 ./metrology-background.o
 .group         0x00000000        0x8 ./metrology-background.o
 .group         0x00000000        0x8 ./metrology-background.o
 .group         0x00000000        0x8 ./metrology-background.o
 .group         0x00000000        0x8 ./metrology-background.o
 .group         0x00000000        0x8 ./metrology-background.o
 .group         0x00000000        0x8 ./metrology-background.o
 .group         0x00000000        0x8 ./metrology-background.o
 .group         0x00000000        0x8 ./metrology-background.o
 .group         0x00000000        0x8 ./metrology-background.o
 .group         0x00000000        0x8 ./metrology-background.o
 .group         0x00000000        0x8 ./metrology-background.o
 .group         0x00000000        0x8 ./metrology-background.o
 .group         0x00000000        0x8 ./metrology-background.o
 .group         0x00000000        0x8 ./metrology-background.o
 .group         0x00000000        0x8 ./metrology-background.o
 .group         0x00000000        0x8 ./metrology-background.o
 .group         0x00000000        0x8 ./metrology-background.o
 .group         0x00000000        0x8 ./metrology-background.o
 .group         0x00000000        0x8 ./metrology-background.o
 .group         0x00000000        0x8 ./metrology-background.o
 .group         0x00000000        0x8 ./metrology-background.o
 .group         0x00000000        0x8 ./metrology-background.o
 .group         0x00000000        0x8 ./metrology-background.o
 .group         0x00000000        0x8 ./metrology-background.o
 .group         0x00000000        0x8 ./metrology-background.o
 .group         0x00000000        0x8 ./metrology-background.o
 .group         0x00000000        0x8 ./metrology-background.o
 .group         0x00000000        0x8 ./metrology-background.o
 .group         0x00000000        0x8 ./metrology-background.o
 .group         0x00000000        0x8 ./metrology-background.o
 .group         0x00000000        0x8 ./metrology-background.o
 .group         0x00000000        0x8 ./metrology-background.o
 .group         0x00000000        0x8 ./metrology-background.o
 .group         0x00000000        0x8 ./metrology-background.o
 .group         0x00000000        0x8 ./metrology-background.o
 .group         0x00000000        0x8 ./metrology-background.o
 .group         0x00000000        0x8 ./metrology-background.o
 .group         0x00000000        0x8 ./metrology-background.o
 .group         0x00000000        0x8 ./metrology-background.o
 .debug_macro   0x00000000      0x4f6 ./metrology-background.o
 .debug_macro   0x00000000       0x10 ./metrology-background.o
 .debug_macro   0x00000000       0x10 ./metrology-background.o
 .debug_macro   0x00000000       0x16 ./metrology-background.o
 .debug_macro   0x00000000       0x58 ./metrology-background.o
 .debug_macro   0x00000000       0xb8 ./metrology-background.o
 .debug_macro   0x00000000      0x1ed ./metrology-background.o
 .debug_macro   0x00000000     0x1968 ./metrology-background.o
 .debug_macro   0x00000000     0x1c18 ./metrology-background.o
 .debug_macro   0x00000000       0x16 ./metrology-background.o
 .debug_macro   0x00000000       0x44 ./metrology-background.o
 .debug_macro   0x00000000      0x209 ./metrology-background.o
 .debug_macro   0x00000000       0x22 ./metrology-background.o
 .debug_macro   0x00000000       0x28 ./metrology-background.o
 .debug_macro   0x00000000       0x4c ./metrology-background.o
 .debug_macro   0x00000000       0x81 ./metrology-background.o
 .debug_macro   0x00000000      0x11d ./metrology-background.o
 .debug_macro   0x00000000      0x103 ./metrology-background.o
 .debug_macro   0x00000000       0x81 ./metrology-background.o
 .debug_macro   0x00000000       0x2e ./metrology-background.o
 .debug_macro   0x00000000      0x110 ./metrology-background.o
 .debug_macro   0x00000000       0x22 ./metrology-background.o
 .debug_macro   0x00000000       0x40 ./metrology-background.o
 .debug_macro   0x00000000       0xc5 ./metrology-background.o
 .debug_macro   0x00000000       0x2e ./metrology-background.o
 .debug_macro   0x00000000      0x175 ./metrology-background.o
 .debug_macro   0x00000000       0x82 ./metrology-background.o
 .debug_macro   0x00000000       0x2e ./metrology-background.o
 .debug_macro   0x00000000       0x4c ./metrology-background.o
 .debug_macro   0x00000000       0x12 ./metrology-background.o
 .debug_macro   0x00000000       0x43 ./metrology-background.o
 .debug_macro   0x00000000       0xa3 ./metrology-background.o
 .debug_macro   0x00000000       0x58 ./metrology-background.o
 .group         0x00000000        0x8 ./printf.o
 .group         0x00000000        0x8 ./printf.o
 .debug_macro   0x00000000      0x4f6 ./printf.o
 .debug_macro   0x00000000       0x58 ./printf.o

Hukommelseskonfiguration

Navn             Begyndelse         Længde            Attributter
SFR              0x00000000         0x00000010
PERIPHERAL_8BIT  0x00000010         0x000000f0
PERIPHERAL_16BIT 0x00000100         0x00000100
RAM              0x00000200         0x00000800
INFOMEM          0x00001000         0x00000400
INFOA            0x00001000         0x00000400
ROM              0x00008000         0x00007fdc         xr
VECT1            0x0000ffe0         0x00000002
VECT2            0x0000ffe2         0x00000002
VECT3            0x0000ffe4         0x00000002
VECT4            0x0000ffe6         0x00000002
VECT5            0x0000ffe8         0x00000002
VECT6            0x0000ffea         0x00000002
VECT7            0x0000ffec         0x00000002
VECT8            0x0000ffee         0x00000002
VECT9            0x0000fff0         0x00000002
VECT10           0x0000fff2         0x00000002
VECT11           0x0000fff4         0x00000002
VECT12           0x0000fff6         0x00000002
VECT13           0x0000fff8         0x00000002
VECT14           0x0000fffa         0x00000002
VECT15           0x0000fffc         0x00000002
RESETVEC         0x0000fffe         0x00000002
*default*        0x00000000         0xffffffff

Lænkerskript og hukommelsestabel

LOAD /home/omn/ti/gcc/bin/../lib/gcc/msp430-elf/4.9.1/../../../../msp430-elf/lib/430/crt0.o
LOAD /home/omn/ti/gcc/bin/../lib/gcc/msp430-elf/4.9.1/430/crtbegin.o
LOAD ./toolkit/fastarithmetic.o
LOAD ./driverlib/cs.o
LOAD ./driverlib/eusci_a_spi.o
LOAD ./driverlib/eusci_a_uart.o
LOAD ./driverlib/eusci_b_i2c.o
LOAD ./driverlib/eusci_b_spi.o
LOAD ./driverlib/flashctl.o
LOAD ./driverlib/gpio.o
LOAD ./driverlib/mpy.o
LOAD ./driverlib/pmm.o
LOAD ./driverlib/sd24.o
LOAD ./driverlib/sfr.o
LOAD ./driverlib/timer_a.o
LOAD ./driverlib/tlv.o
LOAD ./driverlib/wdt.o
LOAD ./communication.o
LOAD ./main.o
LOAD ./metrology-background.o
LOAD ./printf.o
LOAD /home/omn/ti/gcc/bin/../lib/gcc/msp430-elf/4.9.1/430/libgcc.a
START GROUP
LOAD /home/omn/ti/gcc/bin/../lib/gcc/msp430-elf/4.9.1/../../../../msp430-elf/lib/430/libc.a
LOAD /home/omn/ti/gcc/bin/../lib/gcc/msp430-elf/4.9.1/430/libgcc.a
LOAD /home/omn/ti/gcc/bin/../lib/gcc/msp430-elf/4.9.1/../../../../msp430-elf/lib/430/libcrt.a
LOAD /home/omn/ti/gcc/bin/../lib/gcc/msp430-elf/4.9.1/../../../../msp430-elf/lib/430/libnosys.a
END GROUP

__interrupt_vector_1
 *(__interrupt_vector_1)

__interrupt_vector_2
 *(__interrupt_vector_2)
 *(__interrupt_vector_port2)

__interrupt_vector_3
 *(__interrupt_vector_3)

__interrupt_vector_4
 *(__interrupt_vector_4)

__interrupt_vector_5
 *(__interrupt_vector_5)
 *(__interrupt_vector_port1)

__interrupt_vector_6
 *(__interrupt_vector_6)
 *(__interrupt_vector_timer0_a1)

__interrupt_vector_7
 *(__interrupt_vector_7)
 *(__interrupt_vector_timer0_a0)

__interrupt_vector_8
                0x0000ffee        0x2
 *(__interrupt_vector_8)
 __interrupt_vector_8
                0x0000ffee        0x2 ./metrology-background.o
 *(__interrupt_vector_sd24)

__interrupt_vector_9
 *(__interrupt_vector_9)
 *(__interrupt_vector_usci_b0)

__interrupt_vector_10
                0x0000fff2        0x2
 *(__interrupt_vector_10)
 __interrupt_vector_10
                0x0000fff2        0x2 ./communication.o
 *(__interrupt_vector_usci_a0)

__interrupt_vector_11
 *(__interrupt_vector_11)
 *(__interrupt_vector_wdt)

__interrupt_vector_12
 *(__interrupt_vector_12)
 *(__interrupt_vector_vmon)

__interrupt_vector_13
 *(__interrupt_vector_13)
 *(__interrupt_vector_timer1_a1)

__interrupt_vector_14
 *(__interrupt_vector_14)
 *(__interrupt_vector_timer1_a0)

__interrupt_vector_15
 *(__interrupt_vector_15)
 *(__interrupt_vector_nmi)

__reset_vector  0x0000fffe        0x2
 *(__interrupt_vector_16)
 *(__interrupt_vector_reset)
 *(.resetvec)
 .resetvec      0x0000fffe        0x2 /home/omn/ti/gcc/bin/../lib/gcc/msp430-elf/4.9.1/../../../../msp430-elf/lib/430/crt0.o

.rodata         0x00008000      0x258
                0x00008000                . = ALIGN (0x2)
 *(.plt)
 *(.rodata .rodata.* .gnu.linkonce.r.* .const .const:*)
 .rodata        0x00008000       0x1c ./driverlib/gpio.o
 .rodata        0x0000801c       0x34 ./metrology-background.o
 .rodata        0x00008050       0x88 ./printf.o
 .rodata.__clz_tab
                0x000080d8      0x100 /home/omn/ti/gcc/bin/../lib/gcc/msp430-elf/4.9.1/430/libgcc.a(_clz.o)
                0x000080d8                __clz_tab
 *(.rodata1)
 *(.eh_frame_hdr)
 *(.eh_frame)
 .eh_frame      0x000081d8        0x0 /home/omn/ti/gcc/bin/../lib/gcc/msp430-elf/4.9.1/430/crtbegin.o
 .eh_frame      0x000081d8       0x6e /home/omn/ti/gcc/bin/../lib/gcc/msp430-elf/4.9.1/430/libgcc.a(_divdi3.o)
 *fill*         0x00008246        0x2 
 .eh_frame      0x00008248        0x4 /home/omn/ti/gcc/bin/../lib/gcc/msp430-elf/4.9.1/430/crtend.o
 *(.gcc_except_table)
 *(.gcc_except_table.*)
                0x0000824c                PROVIDE (__preinit_array_start, .)
 *(.preinit_array)
                0x0000824c                PROVIDE (__preinit_array_end, .)
                0x0000824c                PROVIDE (__init_array_start, .)
 *(SORT(.init_array.*))
 *(.init_array)
                0x0000824c                PROVIDE (__init_array_end, .)
                0x0000824c                PROVIDE (__fini_array_start, .)
 *(.fini_array)
 *(SORT(.fini_array.*))
                0x0000824c                PROVIDE (__fini_array_end, .)
                0x0000824c        0x4 LONG 0x0
 *crtbegin*.o(.ctors)
 .ctors         0x00008250        0x2 /home/omn/ti/gcc/bin/../lib/gcc/msp430-elf/4.9.1/430/crtbegin.o
 *(EXCLUDE_FILE(*crtend*.o) .ctors)
 *(SORT(.ctors.*))
 *(.ctors)
 .ctors         0x00008252        0x2 /home/omn/ti/gcc/bin/../lib/gcc/msp430-elf/4.9.1/430/crtend.o
 *crtbegin*.o(.dtors)
 .dtors         0x00008254        0x2 /home/omn/ti/gcc/bin/../lib/gcc/msp430-elf/4.9.1/430/crtbegin.o
 *(EXCLUDE_FILE(*crtend*.o) .dtors)
 *(SORT(.dtors.*))
 *(.dtors)
 .dtors         0x00008256        0x2 /home/omn/ti/gcc/bin/../lib/gcc/msp430-elf/4.9.1/430/crtend.o
                0x00008256                __DTOR_END__

.text           0x00008258     0x537c
                0x00008258                . = ALIGN (0x2)
                0x00008258                PROVIDE (_start, .)
 *(SORT(.crt_*))
 .crt_0000start
                0x00008258        0x4 /home/omn/ti/gcc/bin/../lib/gcc/msp430-elf/4.9.1/../../../../msp430-elf/lib/430/crt0.o
                0x00008258                __crt0_start
 .crt_0100init_bss
                0x0000825c        0xe /home/omn/ti/gcc/bin/../lib/gcc/msp430-elf/4.9.1/../../../../msp430-elf/lib/430/libcrt.a(crt_bss.o)
                0x0000825c                __crt0_init_bss
 .crt_0300movedata
                0x0000826a       0x14 /home/omn/ti/gcc/bin/../lib/gcc/msp430-elf/4.9.1/../../../../msp430-elf/lib/430/libcrt.a(crt_movedata.o)
                0x0000826a                __crt0_movedata
 .crt_0700call_init_then_main
                0x0000827e        0xa /home/omn/ti/gcc/bin/../lib/gcc/msp430-elf/4.9.1/../../../../msp430-elf/lib/430/libcrt.a(crt_main.o)
                0x0000827e                __crt0_call_init_then_main
 .crt_0900main_init
                0x00008288       0x3c /home/omn/ti/gcc/bin/../lib/gcc/msp430-elf/4.9.1/../../../../msp430-elf/lib/430/crt0.o
                0x00008288                _msp430_run_init_array
                0x00008296                _msp430_run_preinit_array
                0x000082a4                _msp430_run_fini_array
 *(.lowtext .text .stub .text.* .gnu.linkonce.t.* .text:*)
 .text          0x000082c4        0x0 /home/omn/ti/gcc/bin/../lib/gcc/msp430-elf/4.9.1/../../../../msp430-elf/lib/430/crt0.o
 .text          0x000082c4       0xcc /home/omn/ti/gcc/bin/../lib/gcc/msp430-elf/4.9.1/430/crtbegin.o
 .text          0x00008390      0x2ca ./toolkit/fastarithmetic.o
                0x00008390                sqac48_16_fast
                0x000083ae                sqac64_24_fast
                0x00008424                mac64_16_24_fast
                0x000084c6                mul48_32_16_fast
                0x0000855e                mul32
                0x000085f6                dc_filter
 .text          0x0000865a      0x13a ./driverlib/cs.o
                0x0000865a                CS_setupDCO
                0x000086bc                CS_initClockSignal
                0x0000871c                CS_getACLK
                0x00008724                CS_getSMCLK
                0x00008752                CS_getMCLK
                0x0000877e                CS_getFaultFlagStatus
 .text          0x00008794      0x34c ./driverlib/eusci_a_spi.o
                0x00008794                EUSCI_A_SPI_initMaster
                0x00008850                EUSCI_A_SPI_select4PinFunctionality
                0x00008882                EUSCI_A_SPI_changeMasterClock
                0x000088d8                EUSCI_A_SPI_initSlave
                0x00008938                EUSCI_A_SPI_changeClockPhasePolarity
                0x00008996                EUSCI_A_SPI_transmitData
                0x000089b4                EUSCI_A_SPI_receiveData
                0x000089ca                EUSCI_A_SPI_enableInterrupt
                0x000089f4                EUSCI_A_SPI_disableInterrupt
                0x00008a20                EUSCI_A_SPI_getInterruptStatus
                0x00008a44                EUSCI_A_SPI_clearInterrupt
                0x00008a70                EUSCI_A_SPI_enable
                0x00008a86                EUSCI_A_SPI_disable
                0x00008a9c                EUSCI_A_SPI_getReceiveBufferAddress
                0x00008ab4                EUSCI_A_SPI_getTransmitBufferAddress
                0x00008acc                EUSCI_A_SPI_isBusy
 .text          0x00008ae0      0x488 ./driverlib/eusci_a_uart.o
                0x00008ae0                EUSCI_A_UART_init
                0x00008c7e                EUSCI_A_UART_transmitData
                0x00008cbe                EUSCI_A_UART_receiveData
                0x00008cf2                EUSCI_A_UART_enableInterrupt
                0x00008d4c                EUSCI_A_UART_disableInterrupt
                0x00008daa                EUSCI_A_UART_getInterruptStatus
                0x00008dce                EUSCI_A_UART_clearInterrupt
                0x00008dfa                EUSCI_A_UART_enable
                0x00008e10                EUSCI_A_UART_disable
                0x00008e26                EUSCI_A_UART_queryStatusFlags
                0x00008e4a                EUSCI_A_UART_setDormant
                0x00008e60                EUSCI_A_UART_resetDormant
                0x00008e76                EUSCI_A_UART_transmitAddress
                0x00008ea4                EUSCI_A_UART_transmitBreak
                0x00008f00                EUSCI_A_UART_getReceiveBufferAddress
                0x00008f18                EUSCI_A_UART_getTransmitBufferAddress
                0x00008f30                EUSCI_A_UART_selectDeglitchTime
 .text          0x00008f68      0xa82 ./driverlib/eusci_b_i2c.o
                0x00008f68                EUSCI_B_I2C_initMaster
                0x00009016                EUSCI_B_I2C_initSlave
                0x0000907e                EUSCI_B_I2C_enable
                0x00009094                EUSCI_B_I2C_disable
                0x000090aa                EUSCI_B_I2C_setSlaveAddress
                0x000090c8                EUSCI_B_I2C_setMode
                0x000090fc                EUSCI_B_I2C_getMode
                0x00009116                EUSCI_B_I2C_slavePutData
                0x00009134                EUSCI_B_I2C_slaveGetData
                0x0000914a                EUSCI_B_I2C_isBusBusy
                0x0000915e                EUSCI_B_I2C_masterIsStopSent
                0x0000916e                EUSCI_B_I2C_masterIsStartSent
                0x0000917e                EUSCI_B_I2C_enableInterrupt
                0x000091a4                EUSCI_B_I2C_disableInterrupt
                0x000091ce                EUSCI_B_I2C_clearInterrupt
                0x000091f8                EUSCI_B_I2C_getInterruptStatus
                0x00009212                EUSCI_B_I2C_masterSendSingleByte
                0x000092d6                EUSCI_B_I2C_masterReceiveSingleByte
                0x00009318                EUSCI_B_I2C_masterSendSingleByteWithTimeout
                0x00009438                EUSCI_B_I2C_masterSendMultiByteStart
                0x000094c2                EUSCI_B_I2C_masterSendMultiByteStartWithTimeout
                0x00009578                EUSCI_B_I2C_masterSendMultiByteNext
                0x000095b8                EUSCI_B_I2C_masterSendMultiByteNextWithTimeout
                0x00009624                EUSCI_B_I2C_masterSendMultiByteFinish
                0x00009686                EUSCI_B_I2C_masterSendMultiByteFinishWithTimeout
                0x00009748                EUSCI_B_I2C_masterSendStart
                0x0000975e                EUSCI_B_I2C_masterSendMultiByteStop
                0x00009792                EUSCI_B_I2C_masterSendMultiByteStopWithTimeout
                0x000097fe                EUSCI_B_I2C_masterReceiveStart
                0x00009822                EUSCI_B_I2C_masterReceiveMultiByteNext
                0x00009838                EUSCI_B_I2C_masterReceiveMultiByteFinish
                0x00009878                EUSCI_B_I2C_masterReceiveMultiByteFinishWithTimeout
                0x00009928                EUSCI_B_I2C_masterReceiveMultiByteStop
                0x0000993e                EUSCI_B_I2C_enableMultiMasterMode
                0x00009962                EUSCI_B_I2C_disableMultiMasterMode
                0x00009986                EUSCI_B_I2C_masterReceiveSingle
                0x000099ba                EUSCI_B_I2C_getReceiveBufferAddress
                0x000099d2                EUSCI_B_I2C_getTransmitBufferAddress
 .text          0x000099ea      0x340 ./driverlib/eusci_b_spi.o
                0x000099ea                EUSCI_B_SPI_initMaster
                0x00009a9c                EUSCI_B_SPI_select4PinFunctionality
                0x00009ace                EUSCI_B_SPI_changeMasterClock
                0x00009b24                EUSCI_B_SPI_initSlave
                0x00009b84                EUSCI_B_SPI_changeClockPhasePolarity
                0x00009be2                EUSCI_B_SPI_transmitData
                0x00009c00                EUSCI_B_SPI_receiveData
                0x00009c16                EUSCI_B_SPI_enableInterrupt
                0x00009c40                EUSCI_B_SPI_disableInterrupt
                0x00009c6c                EUSCI_B_SPI_getInterruptStatus
                0x00009c90                EUSCI_B_SPI_clearInterrupt
                0x00009cbc                EUSCI_B_SPI_enable
                0x00009cd2                EUSCI_B_SPI_disable
                0x00009ce8                EUSCI_B_SPI_getReceiveBufferAddress
                0x00009d00                EUSCI_B_SPI_getTransmitBufferAddress
                0x00009d18                EUSCI_B_SPI_isBusy
 .text          0x00009d2a      0x42a ./driverlib/flashctl.o
                0x00009d2a                FlashCtl_eraseSegment
                0x00009d70                FlashCtl_performMassErase
                0x00009dc4                FlashCtl_performEraseCheck
                0x00009e06                FlashCtl_write8
                0x00009e84                FlashCtl_write16
                0x00009f02                FlashCtl_write32
                0x00009fb8                FlashCtl_fillMemory32
                0x0000a070                FlashCtl_getStatus
                0x0000a088                FlashCtl_lockInfo
                0x0000a0c0                FlashCtl_unlockInfo
                0x0000a0f4                FlashCtl_setupClock
 .text          0x0000a154      0x650 ./driverlib/gpio.o
                0x0000a154                GPIO_setAsOutputPin
                0x0000a1e0                GPIO_setAsInputPin
                0x0000a26e                GPIO_setAsPeripheralModuleFunctionOutputPin
                0x0000a378                GPIO_setAsPeripheralModuleFunctionInputPin
                0x0000a486                GPIO_setOutputHighOnPin
                0x0000a4d8                GPIO_setOutputLowOnPin
                0x0000a52e                GPIO_toggleOutputOnPin
                0x0000a580                GPIO_getInputPinValue
                0x0000a5d6                GPIO_enableInterrupt
                0x0000a62c                GPIO_disableInterrupt
                0x0000a686                GPIO_getInterruptStatus
                0x0000a6ca                GPIO_clearInterrupt
                0x0000a724                GPIO_selectInterruptEdge
 .text          0x0000a7a4       0xa2 ./driverlib/mpy.o
                0x0000a7a4                MPY_setOperandOne8Bit
                0x0000a7be                MPY_setOperandOne16Bit
                0x0000a7d8                MPY_setOperandTwo8Bit
                0x0000a7ec                MPY_setOperandTwo16Bit
                0x0000a7fe                MPY_getResult
                0x0000a83e                MPY_getSumExtension
 .text          0x0000a846      0x126 ./driverlib/pmm.o
                0x0000a846                PMM_setupVoltageMonitor
                0x0000a868                PMM_calibrateReference
                0x0000a87e                PMM_setRegulatorStatus
                0x0000a8a0                PMM_unlockIOConfiguration
                0x0000a8b0                PMM_enableInterrupt
                0x0000a8ca                PMM_disableInterrupt
                0x0000a8f2                PMM_getInterruptStatus
                0x0000a944                PMM_clearInterrupt
 .text          0x0000a96c      0x778 ./driverlib/sd24.o
                0x0000a96c                SD24_init
                0x0000a9d0                SD24_initConverter
                0x0000aa18                SD24_initConverterAdvanced
                0x0000aad4                SD24_setConverterDataFormat
                0x0000ab1c                SD24_startConverterConversion
                0x0000ab52                SD24_stopConverterConversion
                0x0000ab88                SD24_setInputChannel
                0x0000abd6                SD24_setInterruptDelay
                0x0000ac1e                SD24_setOversampling
                0x0000ac66                SD24_setGain
                0x0000acb4                SD24_getResults
                0x0000af50                SD24_getHighWordResults
                0x0000afa6                SD24_enableInterrupt
                0x0000b018                SD24_disableInterrupt
                0x0000b078                SD24_clearInterrupt
                0x0000b0b2                SD24_getInterruptStatus
 .text          0x0000b0e4       0x86 ./driverlib/sfr.o
                0x0000b0e4                SFR_enableInterrupt
                0x0000b100                SFR_disableInterrupt
                0x0000b12a                SFR_getInterruptStatus
                0x0000b140                SFR_clearInterrupt
 .text          0x0000b16a      0x698 ./driverlib/timer_a.o
                0x0000b16a                Timer_A_startCounter
                0x0000b188                Timer_A_initContinuousMode
                0x0000b20a                Timer_A_initUpMode
                0x0000b2da                Timer_A_initUpDownMode
                0x0000b3aa                Timer_A_initCaptureMode
                0x0000b42a                Timer_A_initCompareMode
                0x0000b4a8                Timer_A_enableInterrupt
                0x0000b4be                Timer_A_disableInterrupt
                0x0000b4d4                Timer_A_getInterruptStatus
                0x0000b4f6                Timer_A_enableCaptureCompareInterrupt
                0x0000b51a                Timer_A_disableCaptureCompareInterrupt
                0x0000b53e                Timer_A_getCaptureCompareInterruptStatus
                0x0000b56c                Timer_A_clear
                0x0000b582                Timer_A_getSynchronizedCaptureCompareInput
                0x0000b5b0                Timer_A_getOutputForOutputModeOutBitValue
                0x0000b5d4                Timer_A_getCaptureCompareCount
                0x0000b5ee                Timer_A_setOutputForOutputModeOutBitValue
                0x0000b638                Timer_A_outputPWM
                0x0000b6f2                Timer_A_stop
                0x0000b70a                Timer_A_setCompareValue
                0x0000b730                Timer_A_setOutputMode
                0x0000b764                Timer_A_clearTimerInterrupt
                0x0000b77a                Timer_A_clearCaptureCompareInterrupt
                0x0000b79c                Timer_A_getCounterValue
 .text          0x0000b802       0xac ./driverlib/tlv.o
                0x0000b802                TLV_getInfo
                0x0000b856                TLV_performChecksumCheck
 .text          0x0000b8ae       0xcc ./driverlib/wdt.o
                0x0000b8ae                WDT_hold
                0x0000b8d8                WDT_start
                0x0000b902                WDT_resetTimer
                0x0000b92a                WDT_initWatchdogTimer
                0x0000b952                WDT_initIntervalTimer
 .text          0x0000b97a      0x100 ./communication.o
                0x0000b97a                fifo_add
                0x0000b9aa                tx
                0x0000b9ec                puts
                0x0000ba16                putc
                0x0000ba28                USCI_A0_ISR
 .text          0x0000ba7a      0x1d0 ./main.o
                0x0000ba7a                tlv_setup
                0x0000bb1e                uart_setup
                0x0000bb92                adc_setup
                0x0000bc02                main
 .text          0x0000bc4a      0x7fc ./metrology-background.o
                0x0000bc4a                metrology_start
                0x0000bc96                metrology_print_status
                0x0000c3a2                SD24_ISR
 .text          0x0000c446      0x510 ./printf.o
                0x0000c634                printf
 .text          0x0000c956        0x0 /home/omn/ti/gcc/bin/../lib/gcc/msp430-elf/4.9.1/430/libgcc.a(_ashrdi3.o)
 .text.__ashrdi3
                0x0000c956       0x9a /home/omn/ti/gcc/bin/../lib/gcc/msp430-elf/4.9.1/430/libgcc.a(_ashrdi3.o)
                0x0000c956                __ashrdi3
 .text          0x0000c9f0        0x0 /home/omn/ti/gcc/bin/../lib/gcc/msp430-elf/4.9.1/430/libgcc.a(_divdi3.o)
 .text.__divdi3
                0x0000c9f0      0x522 /home/omn/ti/gcc/bin/../lib/gcc/msp430-elf/4.9.1/430/libgcc.a(_divdi3.o)
                0x0000c9f0                __mspabi_divlli
 .text          0x0000cf12        0x0 /home/omn/ti/gcc/bin/../lib/gcc/msp430-elf/4.9.1/430/libgcc.a(lib2divSI.o)
 .text.udivmodsi4
                0x0000cf12       0x8a /home/omn/ti/gcc/bin/../lib/gcc/msp430-elf/4.9.1/430/libgcc.a(lib2divSI.o)
                0x0000cf12                udivmodsi4
 .text.__divsi3
                0x0000cf9c       0x84 /home/omn/ti/gcc/bin/../lib/gcc/msp430-elf/4.9.1/430/libgcc.a(lib2divSI.o)
                0x0000cf9c                __mspabi_divli
 .text.__modsi3
                0x0000d020       0x60 /home/omn/ti/gcc/bin/../lib/gcc/msp430-elf/4.9.1/430/libgcc.a(lib2divSI.o)
                0x0000d020                __mspabi_remli
 .text.__udivsi3
                0x0000d080        0xe /home/omn/ti/gcc/bin/../lib/gcc/msp430-elf/4.9.1/430/libgcc.a(lib2divSI.o)
                0x0000d080                __mspabi_divlu
 .text.__umodsi3
                0x0000d08e        0xe /home/omn/ti/gcc/bin/../lib/gcc/msp430-elf/4.9.1/430/libgcc.a(lib2divSI.o)
                0x0000d08e                __mspabi_remul
 .text          0x0000d09c       0x10 /home/omn/ti/gcc/bin/../lib/gcc/msp430-elf/4.9.1/430/libgcc.a(epilogue.o)
                0x0000d09c                __mspabi_func_epilog_7
                0x0000d09e                __mspabi_func_epilog_6
                0x0000d0a0                __mspabi_func_epilog_5
                0x0000d0a2                __mspabi_func_epilog_4
                0x0000d0a4                __mspabi_func_epilog_3
                0x0000d0a6                __mspabi_func_epilog_2
                0x0000d0a8                __mspabi_func_epilog_1
 .text          0x0000d0ac       0x74 /home/omn/ti/gcc/bin/../lib/gcc/msp430-elf/4.9.1/430/libgcc.a(slli.o)
                0x0000d0ac                __mspabi_slli_15
                0x0000d0ae                __mspabi_slli_14
                0x0000d0b0                __mspabi_slli_13
                0x0000d0b2                __mspabi_slli_12
                0x0000d0b4                __mspabi_slli_11
                0x0000d0b6                __mspabi_slli_10
                0x0000d0b8                __mspabi_slli_9
                0x0000d0ba                __mspabi_slli_8
                0x0000d0bc                __mspabi_slli_7
                0x0000d0be                __mspabi_slli_6
                0x0000d0c0                __mspabi_slli_5
                0x0000d0c2                __mspabi_slli_4
                0x0000d0c4                __mspabi_slli_3
                0x0000d0c6                __mspabi_slli_2
                0x0000d0c8                __mspabi_slli_1
                0x0000d0d0                __mspabi_slli
                0x0000d0d6                __mspabi_slll_15
                0x0000d0da                __mspabi_slll_14
                0x0000d0de                __mspabi_slll_13
                0x0000d0e2                __mspabi_slll_12
                0x0000d0e6                __mspabi_slll_11
                0x0000d0ea                __mspabi_slll_10
                0x0000d0ee                __mspabi_slll_9
                0x0000d0f2                __mspabi_slll_8
                0x0000d0f6                __mspabi_slll_7
                0x0000d0fa                __mspabi_slll_6
                0x0000d0fe                __mspabi_slll_5
                0x0000d102                __mspabi_slll_4
                0x0000d106                __mspabi_slll_3
                0x0000d10a                __mspabi_slll_2
                0x0000d10e                __mspabi_slll_1
                0x0000d11a                __mspabi_slll
 .text          0x0000d120       0x74 /home/omn/ti/gcc/bin/../lib/gcc/msp430-elf/4.9.1/430/libgcc.a(srai.o)
                0x0000d120                __mspabi_srai_15
                0x0000d122                __mspabi_srai_14
                0x0000d124                __mspabi_srai_13
                0x0000d126                __mspabi_srai_12
                0x0000d128                __mspabi_srai_11
                0x0000d12a                __mspabi_srai_10
                0x0000d12c                __mspabi_srai_9
                0x0000d12e                __mspabi_srai_8
                0x0000d130                __mspabi_srai_7
                0x0000d132                __mspabi_srai_6
                0x0000d134                __mspabi_srai_5
                0x0000d136                __mspabi_srai_4
                0x0000d138                __mspabi_srai_3
                0x0000d13a                __mspabi_srai_2
                0x0000d13c                __mspabi_srai_1
                0x0000d144                __mspabi_srai
                0x0000d14a                __mspabi_sral_15
                0x0000d14e                __mspabi_sral_14
                0x0000d152                __mspabi_sral_13
                0x0000d156                __mspabi_sral_12
                0x0000d15a                __mspabi_sral_11
                0x0000d15e                __mspabi_sral_10
                0x0000d162                __mspabi_sral_9
                0x0000d166                __mspabi_sral_8
                0x0000d16a                __mspabi_sral_7
                0x0000d16e                __mspabi_sral_6
                0x0000d172                __mspabi_sral_5
                0x0000d176                __mspabi_sral_4
                0x0000d17a                __mspabi_sral_3
                0x0000d17e                __mspabi_sral_2
                0x0000d182                __mspabi_sral_1
                0x0000d18e                __mspabi_sral
 .text          0x0000d194       0xb4 /home/omn/ti/gcc/bin/../lib/gcc/msp430-elf/4.9.1/430/libgcc.a(srli.o)
                0x0000d194                __mspabi_srli_15
                0x0000d198                __mspabi_srli_14
                0x0000d19c                __mspabi_srli_13
                0x0000d1a0                __mspabi_srli_12
                0x0000d1a4                __mspabi_srli_11
                0x0000d1a8                __mspabi_srli_10
                0x0000d1ac                __mspabi_srli_9
                0x0000d1b0                __mspabi_srli_8
                0x0000d1b4                __mspabi_srli_7
                0x0000d1b8                __mspabi_srli_6
                0x0000d1bc                __mspabi_srli_5
                0x0000d1c0                __mspabi_srli_4
                0x0000d1c4                __mspabi_srli_3
                0x0000d1c8                __mspabi_srli_2
                0x0000d1cc                __mspabi_srli_1
                0x0000d1d8                __mspabi_srli
                0x0000d1de                __mspabi_srll_15
                0x0000d1e4                __mspabi_srll_14
                0x0000d1ea                __mspabi_srll_13
                0x0000d1f0                __mspabi_srll_12
                0x0000d1f6                __mspabi_srll_11
                0x0000d1fc                __mspabi_srll_10
                0x0000d202                __mspabi_srll_9
                0x0000d208                __mspabi_srll_8
                0x0000d20e                __mspabi_srll_7
                0x0000d214                __mspabi_srll_6
                0x0000d21a                __mspabi_srll_5
                0x0000d220                __mspabi_srll_4
                0x0000d226                __mspabi_srll_3
                0x0000d22c                __mspabi_srll_2
                0x0000d232                __mspabi_srll_1
                0x0000d242                __mspabi_srll
 .text          0x0000d248        0x0 /home/omn/ti/gcc/bin/../lib/gcc/msp430-elf/4.9.1/430/libgcc.a(lib2hw_mul.o)
 .text.__mulhi2
                0x0000d248       0x14 /home/omn/ti/gcc/bin/../lib/gcc/msp430-elf/4.9.1/430/libgcc.a(lib2hw_mul.o)
                0x0000d248                __mulhi2
 .text.__mulsihi2
                0x0000d25c       0x18 /home/omn/ti/gcc/bin/../lib/gcc/msp430-elf/4.9.1/430/libgcc.a(lib2hw_mul.o)
                0x0000d25c                __mulsihi2
 .text.__umulsihi2
                0x0000d274       0x18 /home/omn/ti/gcc/bin/../lib/gcc/msp430-elf/4.9.1/430/libgcc.a(lib2hw_mul.o)
                0x0000d274                __umulsihi2
 .text.__mulsi2
                0x0000d28c       0x30 /home/omn/ti/gcc/bin/../lib/gcc/msp430-elf/4.9.1/430/libgcc.a(lib2hw_mul.o)
                0x0000d28c                __mulsi2
 .text.__mulsi2_hw32
                0x0000d2bc       0x20 /home/omn/ti/gcc/bin/../lib/gcc/msp430-elf/4.9.1/430/libgcc.a(lib2hw_mul.o)
                0x0000d2bc                __mulsi2_hw32
 .text.__muldisi2_hw32
                0x0000d2dc       0x28 /home/omn/ti/gcc/bin/../lib/gcc/msp430-elf/4.9.1/430/libgcc.a(lib2hw_mul.o)
                0x0000d2dc                __muldisi2_hw32
 .text.__umuldisi2_hw32
                0x0000d304       0x28 /home/omn/ti/gcc/bin/../lib/gcc/msp430-elf/4.9.1/430/libgcc.a(lib2hw_mul.o)
                0x0000d304                __umuldisi2_hw32
 .text.__mulhi2_f5
                0x0000d32c       0x14 /home/omn/ti/gcc/bin/../lib/gcc/msp430-elf/4.9.1/430/libgcc.a(lib2hw_mul.o)
                0x0000d32c                __mulhi2_f5
 .text.__mulsihi2_f5
                0x0000d340       0x18 /home/omn/ti/gcc/bin/../lib/gcc/msp430-elf/4.9.1/430/libgcc.a(lib2hw_mul.o)
                0x0000d340                __mulsihi2_f5
 .text.__umulsihi2_f5
                0x0000d358       0x18 /home/omn/ti/gcc/bin/../lib/gcc/msp430-elf/4.9.1/430/libgcc.a(lib2hw_mul.o)
                0x0000d358                __umulsihi2_f5
 .text.__mulsi2_f5
                0x0000d370       0x20 /home/omn/ti/gcc/bin/../lib/gcc/msp430-elf/4.9.1/430/libgcc.a(lib2hw_mul.o)
                0x0000d370                __mulsi2_f5
 .text.__muldisi2_f5
                0x0000d390       0x28 /home/omn/ti/gcc/bin/../lib/gcc/msp430-elf/4.9.1/430/libgcc.a(lib2hw_mul.o)
                0x0000d390                __muldisi2_f5
 .text.__umuldisi2_f5
                0x0000d3b8       0x28 /home/omn/ti/gcc/bin/../lib/gcc/msp430-elf/4.9.1/430/libgcc.a(lib2hw_mul.o)
                0x0000d3b8                __umuldisi2_f5
 .text          0x0000d3e0        0x0 /home/omn/ti/gcc/bin/../lib/gcc/msp430-elf/4.9.1/430/libgcc.a(_lshrdi3.o)
 .text.__lshrdi3
                0x0000d3e0       0x7c /home/omn/ti/gcc/bin/../lib/gcc/msp430-elf/4.9.1/430/libgcc.a(_lshrdi3.o)
                0x0000d3e0                __lshrdi3
 .text          0x0000d45c        0x0 /home/omn/ti/gcc/bin/../lib/gcc/msp430-elf/4.9.1/430/libgcc.a(_ashldi3.o)
 .text.__ashldi3
                0x0000d45c       0x7c /home/omn/ti/gcc/bin/../lib/gcc/msp430-elf/4.9.1/430/libgcc.a(_ashldi3.o)
                0x0000d45c                __ashldi3
 .text          0x0000d4d8        0x0 /home/omn/ti/gcc/bin/../lib/gcc/msp430-elf/4.9.1/430/libgcc.a(_clzdi2.o)
 .text.__clzdi2
                0x0000d4d8       0x68 /home/omn/ti/gcc/bin/../lib/gcc/msp430-elf/4.9.1/430/libgcc.a(_clzdi2.o)
                0x0000d4d8                __clzdi2
 .text          0x0000d540        0x0 /home/omn/ti/gcc/bin/../lib/gcc/msp430-elf/4.9.1/430/libgcc.a(_clz.o)
 .text          0x0000d540        0x0 /home/omn/ti/gcc/bin/../lib/gcc/msp430-elf/4.9.1/../../../../msp430-elf/lib/430/libc.a(lib_a-memset.o)
 .text.memset   0x0000d540       0x14 /home/omn/ti/gcc/bin/../lib/gcc/msp430-elf/4.9.1/../../../../msp430-elf/lib/430/libc.a(lib_a-memset.o)
                0x0000d540                memset
 .text          0x0000d554        0x0 /home/omn/ti/gcc/bin/../lib/gcc/msp430-elf/4.9.1/../../../../msp430-elf/lib/430/libcrt.a(crt_bss.o)
 .text          0x0000d554        0x0 /home/omn/ti/gcc/bin/../lib/gcc/msp430-elf/4.9.1/../../../../msp430-elf/lib/430/libcrt.a(crt_movedata.o)
 .text          0x0000d554        0x0 /home/omn/ti/gcc/bin/../lib/gcc/msp430-elf/4.9.1/../../../../msp430-elf/lib/430/libcrt.a(crt_main.o)
 .text          0x0000d554        0x0 /home/omn/ti/gcc/bin/../lib/gcc/msp430-elf/4.9.1/../../../../msp430-elf/lib/430/libc.a(lib_a-memmove.o)
 .text.memmove  0x0000d554       0x44 /home/omn/ti/gcc/bin/../lib/gcc/msp430-elf/4.9.1/../../../../msp430-elf/lib/430/libc.a(lib_a-memmove.o)
                0x0000d554                memmove
 .text          0x0000d598       0x20 /home/omn/ti/gcc/bin/../lib/gcc/msp430-elf/4.9.1/430/crtend.o
 .text          0x0000d5b8        0x0 /home/omn/ti/gcc/bin/../lib/gcc/msp430-elf/4.9.1/../../../../msp430-elf/lib/430/crtn.o
 *(.text.*personality*)
 *(.gnu.warning)
 *(.interp .hash .dynsym .dynstr .gnu.version*)
                0x0000d5b8                PROVIDE (__etext, .)
                0x0000d5b8                PROVIDE (_etext, .)
                0x0000d5b8                PROVIDE (etext, .)
                0x0000d5b8                . = ALIGN (0x2)
 *(.init)
 .init          0x0000d5b8        0x0 /home/omn/ti/gcc/bin/../lib/gcc/msp430-elf/4.9.1/../../../../msp430-elf/lib/430/crt0.o
                0x0000d5b8                __msp430_init
 .init          0x0000d5b8        0x4 /home/omn/ti/gcc/bin/../lib/gcc/msp430-elf/4.9.1/430/crtbegin.o
 .init          0x0000d5bc        0x4 /home/omn/ti/gcc/bin/../lib/gcc/msp430-elf/4.9.1/430/crtend.o
 .init          0x0000d5c0        0xa /home/omn/ti/gcc/bin/../lib/gcc/msp430-elf/4.9.1/../../../../msp430-elf/lib/430/crtn.o
                0x0000d5ca                __msp430_init_end
 *(.fini)
 .fini          0x0000d5ca        0x4 /home/omn/ti/gcc/bin/../lib/gcc/msp430-elf/4.9.1/../../../../msp430-elf/lib/430/crt0.o
                0x0000d5ca                __msp430_fini
 .fini          0x0000d5ce        0x4 /home/omn/ti/gcc/bin/../lib/gcc/msp430-elf/4.9.1/430/crtbegin.o
 .fini          0x0000d5d2        0x2 /home/omn/ti/gcc/bin/../lib/gcc/msp430-elf/4.9.1/../../../../msp430-elf/lib/430/crtn.o
                0x0000d5d4                __msp430_fini_end
 *(.tm_clone_table)
 .tm_clone_table
                0x0000d5d4        0x0 /home/omn/ti/gcc/bin/../lib/gcc/msp430-elf/4.9.1/430/crtbegin.o
 .tm_clone_table
                0x0000d5d4        0x0 /home/omn/ti/gcc/bin/../lib/gcc/msp430-elf/4.9.1/430/crtend.o
                0x0000d5d4                __TMC_END__

.data           0x00000200       0x16 indlæsningsadresse 0x0000d5d4
                0x00000200                . = ALIGN (0x2)
                0x00000200                PROVIDE (__datastart, .)
 *(.jcr)
 .jcr           0x00000200        0x0 /home/omn/ti/gcc/bin/../lib/gcc/msp430-elf/4.9.1/430/crtbegin.o
 .jcr           0x00000200        0x2 /home/omn/ti/gcc/bin/../lib/gcc/msp430-elf/4.9.1/430/crtend.o
 *(.data.rel.ro.local)
 *(.data.rel.ro*)
 *(.dynamic)
 *(.data .data.* .gnu.linkonce.d.*)
 .data          0x00000202        0x0 /home/omn/ti/gcc/bin/../lib/gcc/msp430-elf/4.9.1/../../../../msp430-elf/lib/430/crt0.o
 .data          0x00000202        0x2 /home/omn/ti/gcc/bin/../lib/gcc/msp430-elf/4.9.1/430/crtbegin.o
                0x00000202                __dso_handle
 .data          0x00000204        0x0 ./toolkit/fastarithmetic.o
 .data          0x00000204        0x0 ./driverlib/cs.o
 .data          0x00000204        0x0 ./driverlib/eusci_a_spi.o
 .data          0x00000204        0x0 ./driverlib/eusci_a_uart.o
 .data          0x00000204        0x0 ./driverlib/eusci_b_i2c.o
 .data          0x00000204        0x0 ./driverlib/eusci_b_spi.o
 .data          0x00000204        0x0 ./driverlib/flashctl.o
 .data          0x00000204        0x0 ./driverlib/gpio.o
 .data          0x00000204        0x0 ./driverlib/mpy.o
 .data          0x00000204        0x0 ./driverlib/pmm.o
 .data          0x00000204        0x0 ./driverlib/sd24.o
 .data          0x00000204        0x0 ./driverlib/sfr.o
 .data          0x00000204        0x0 ./driverlib/timer_a.o
 .data          0x00000204        0x0 ./driverlib/tlv.o
 .data          0x00000204        0x0 ./driverlib/wdt.o
 .data          0x00000204        0x8 ./communication.o
 .data          0x0000020c        0x0 ./main.o
 .data          0x0000020c        0xa ./metrology-background.o
                0x0000020c                samples_per_second
                0x0000020e                datardy
                0x00000210                v_hist_wrt_ptr
                0x00000212                v_hist_start
                0x00000214                v_hist_end
 .data          0x00000216        0x0 ./printf.o
 .data          0x00000216        0x0 /home/omn/ti/gcc/bin/../lib/gcc/msp430-elf/4.9.1/430/libgcc.a(_ashrdi3.o)
 .data          0x00000216        0x0 /home/omn/ti/gcc/bin/../lib/gcc/msp430-elf/4.9.1/430/libgcc.a(_divdi3.o)
 .data          0x00000216        0x0 /home/omn/ti/gcc/bin/../lib/gcc/msp430-elf/4.9.1/430/libgcc.a(lib2divSI.o)
 .data          0x00000216        0x0 /home/omn/ti/gcc/bin/../lib/gcc/msp430-elf/4.9.1/430/libgcc.a(epilogue.o)
 .data          0x00000216        0x0 /home/omn/ti/gcc/bin/../lib/gcc/msp430-elf/4.9.1/430/libgcc.a(slli.o)
 .data          0x00000216        0x0 /home/omn/ti/gcc/bin/../lib/gcc/msp430-elf/4.9.1/430/libgcc.a(srai.o)
 .data          0x00000216        0x0 /home/omn/ti/gcc/bin/../lib/gcc/msp430-elf/4.9.1/430/libgcc.a(srli.o)
 .data          0x00000216        0x0 /home/omn/ti/gcc/bin/../lib/gcc/msp430-elf/4.9.1/430/libgcc.a(lib2hw_mul.o)
 .data          0x00000216        0x0 /home/omn/ti/gcc/bin/../lib/gcc/msp430-elf/4.9.1/430/libgcc.a(_lshrdi3.o)
 .data          0x00000216        0x0 /home/omn/ti/gcc/bin/../lib/gcc/msp430-elf/4.9.1/430/libgcc.a(_ashldi3.o)
 .data          0x00000216        0x0 /home/omn/ti/gcc/bin/../lib/gcc/msp430-elf/4.9.1/430/libgcc.a(_clzdi2.o)
 .data          0x00000216        0x0 /home/omn/ti/gcc/bin/../lib/gcc/msp430-elf/4.9.1/430/libgcc.a(_clz.o)
 .data          0x00000216        0x0 /home/omn/ti/gcc/bin/../lib/gcc/msp430-elf/4.9.1/../../../../msp430-elf/lib/430/libc.a(lib_a-memset.o)
 .data          0x00000216        0x0 /home/omn/ti/gcc/bin/../lib/gcc/msp430-elf/4.9.1/../../../../msp430-elf/lib/430/libcrt.a(crt_bss.o)
 .data          0x00000216        0x0 /home/omn/ti/gcc/bin/../lib/gcc/msp430-elf/4.9.1/../../../../msp430-elf/lib/430/libcrt.a(crt_movedata.o)
 .data          0x00000216        0x0 /home/omn/ti/gcc/bin/../lib/gcc/msp430-elf/4.9.1/../../../../msp430-elf/lib/430/libcrt.a(crt_main.o)
 .data          0x00000216        0x0 /home/omn/ti/gcc/bin/../lib/gcc/msp430-elf/4.9.1/../../../../msp430-elf/lib/430/libc.a(lib_a-memmove.o)
 .data          0x00000216        0x0 /home/omn/ti/gcc/bin/../lib/gcc/msp430-elf/4.9.1/430/crtend.o
 .data          0x00000216        0x0 /home/omn/ti/gcc/bin/../lib/gcc/msp430-elf/4.9.1/../../../../msp430-elf/lib/430/crtn.o
 *(.gnu.linkonce.d.*personality*)
 *(.data1)
 *(.got.plt)
 *(.got)
                0x00000216                . = ALIGN (0x2)
 *(.sdata .sdata.* .gnu.linkonce.s.* D_2 D_1)
                0x00000216                . = ALIGN (0x2)
                0x00000216                _edata = .
                0x00000216                PROVIDE (edata, .)
                0x00000216                PROVIDE (__dataend, .)
                0x0000d5d4                PROVIDE (__romdatastart, LOADADDR (.data))
                0x00000016                PROVIDE (__romdatacopysize, SIZEOF (.data))

.bss            0x00000216      0x3dc indlæsningsadresse 0x0000d5ea
                0x00000216                . = ALIGN (0x2)
                0x00000216                PROVIDE (__bssstart, .)
 *(.dynbss)
 *(.sbss .sbss.*)
 *(.bss .bss.* .gnu.linkonce.b.*)
 .bss           0x00000216        0x0 /home/omn/ti/gcc/bin/../lib/gcc/msp430-elf/4.9.1/../../../../msp430-elf/lib/430/crt0.o
 .bss           0x00000216       0x12 /home/omn/ti/gcc/bin/../lib/gcc/msp430-elf/4.9.1/430/crtbegin.o
 .bss           0x00000228        0x0 ./toolkit/fastarithmetic.o
 .bss           0x00000228        0x0 ./driverlib/cs.o
 .bss           0x00000228        0x0 ./driverlib/eusci_a_spi.o
 .bss           0x00000228        0x0 ./driverlib/eusci_a_uart.o
 .bss           0x00000228        0x0 ./driverlib/eusci_b_i2c.o
 .bss           0x00000228        0x0 ./driverlib/eusci_b_spi.o
 .bss           0x00000228        0x0 ./driverlib/flashctl.o
 .bss           0x00000228        0x0 ./driverlib/gpio.o
 .bss           0x00000228        0x0 ./driverlib/mpy.o
 .bss           0x00000228        0x0 ./driverlib/pmm.o
 .bss           0x00000228        0x0 ./driverlib/sd24.o
 .bss           0x00000228        0x0 ./driverlib/sfr.o
 .bss           0x00000228        0x0 ./driverlib/timer_a.o
 .bss           0x00000228        0x0 ./driverlib/tlv.o
 .bss           0x00000228        0x0 ./driverlib/wdt.o
 .bss           0x00000228      0x1f4 ./communication.o
 .bss           0x0000041c        0x0 ./main.o
 .bss           0x0000041c        0x6 ./metrology-background.o
 .bss           0x00000422        0x0 ./printf.o
 .bss           0x00000422        0x0 /home/omn/ti/gcc/bin/../lib/gcc/msp430-elf/4.9.1/430/libgcc.a(_ashrdi3.o)
 .bss           0x00000422        0x0 /home/omn/ti/gcc/bin/../lib/gcc/msp430-elf/4.9.1/430/libgcc.a(_divdi3.o)
 .bss           0x00000422        0x0 /home/omn/ti/gcc/bin/../lib/gcc/msp430-elf/4.9.1/430/libgcc.a(lib2divSI.o)
 .bss           0x00000422        0x0 /home/omn/ti/gcc/bin/../lib/gcc/msp430-elf/4.9.1/430/libgcc.a(epilogue.o)
 .bss           0x00000422        0x0 /home/omn/ti/gcc/bin/../lib/gcc/msp430-elf/4.9.1/430/libgcc.a(slli.o)
 .bss           0x00000422        0x0 /home/omn/ti/gcc/bin/../lib/gcc/msp430-elf/4.9.1/430/libgcc.a(srai.o)
 .bss           0x00000422        0x0 /home/omn/ti/gcc/bin/../lib/gcc/msp430-elf/4.9.1/430/libgcc.a(srli.o)
 .bss           0x00000422        0x0 /home/omn/ti/gcc/bin/../lib/gcc/msp430-elf/4.9.1/430/libgcc.a(lib2hw_mul.o)
 .bss           0x00000422        0x0 /home/omn/ti/gcc/bin/../lib/gcc/msp430-elf/4.9.1/430/libgcc.a(_lshrdi3.o)
 .bss           0x00000422        0x0 /home/omn/ti/gcc/bin/../lib/gcc/msp430-elf/4.9.1/430/libgcc.a(_ashldi3.o)
 .bss           0x00000422        0x0 /home/omn/ti/gcc/bin/../lib/gcc/msp430-elf/4.9.1/430/libgcc.a(_clzdi2.o)
 .bss           0x00000422        0x0 /home/omn/ti/gcc/bin/../lib/gcc/msp430-elf/4.9.1/430/libgcc.a(_clz.o)
 .bss           0x00000422        0x0 /home/omn/ti/gcc/bin/../lib/gcc/msp430-elf/4.9.1/../../../../msp430-elf/lib/430/libc.a(lib_a-memset.o)
 .bss           0x00000422        0x0 /home/omn/ti/gcc/bin/../lib/gcc/msp430-elf/4.9.1/../../../../msp430-elf/lib/430/libcrt.a(crt_bss.o)
 .bss           0x00000422        0x0 /home/omn/ti/gcc/bin/../lib/gcc/msp430-elf/4.9.1/../../../../msp430-elf/lib/430/libcrt.a(crt_movedata.o)
 .bss           0x00000422        0x0 /home/omn/ti/gcc/bin/../lib/gcc/msp430-elf/4.9.1/../../../../msp430-elf/lib/430/libcrt.a(crt_main.o)
 .bss           0x00000422        0x0 /home/omn/ti/gcc/bin/../lib/gcc/msp430-elf/4.9.1/../../../../msp430-elf/lib/430/libc.a(lib_a-memmove.o)
 .bss           0x00000422        0x0 /home/omn/ti/gcc/bin/../lib/gcc/msp430-elf/4.9.1/430/crtend.o
 .bss           0x00000422        0x0 /home/omn/ti/gcc/bin/../lib/gcc/msp430-elf/4.9.1/../../../../msp430-elf/lib/430/crtn.o
                0x00000422                . = ALIGN (0x2)
 *(COMMON)
 COMMON         0x00000422      0x1d0 ./metrology-background.o
                0x00000422                metrology
                0x000004a6                v_hist
                0x000005f0                status
                0x000005f2                PROVIDE (__bssend, .)
                0x000003dc                PROVIDE (__bsssize, SIZEOF (.bss))

.noinit         0x000005f2        0x0 indlæsningsadresse 0x0000d5ea
                0x000005f2                . = ALIGN (0x2)
                0x000005f2                PROVIDE (__noinit_start, .)
 *(.noinit)
                0x000005f2                . = ALIGN (0x2)
                0x000005f2                PROVIDE (__noinit_end, .)
                0x000005f2                end = .

.stack          0x00000a00        0x0
                0x00000a00                PROVIDE (__stack, .)
 *(.stack)

.infoA

.MP430.attributes
                0x00000000      0x398
 *(.MSP430.attributes)
 .MSP430.attributes
                0x00000000       0x17 /home/omn/ti/gcc/bin/../lib/gcc/msp430-elf/4.9.1/../../../../msp430-elf/lib/430/crt0.o
 .MSP430.attributes
                0x00000017       0x17 /home/omn/ti/gcc/bin/../lib/gcc/msp430-elf/4.9.1/430/crtbegin.o
 .MSP430.attributes
                0x0000002e       0x17 ./toolkit/fastarithmetic.o
 .MSP430.attributes
                0x00000045       0x17 ./driverlib/cs.o
 .MSP430.attributes
                0x0000005c       0x17 ./driverlib/eusci_a_spi.o
 .MSP430.attributes
                0x00000073       0x17 ./driverlib/eusci_a_uart.o
 .MSP430.attributes
                0x0000008a       0x17 ./driverlib/eusci_b_i2c.o
 .MSP430.attributes
                0x000000a1       0x17 ./driverlib/eusci_b_spi.o
 .MSP430.attributes
                0x000000b8       0x17 ./driverlib/flashctl.o
 .MSP430.attributes
                0x000000cf       0x17 ./driverlib/gpio.o
 .MSP430.attributes
                0x000000e6       0x17 ./driverlib/mpy.o
 .MSP430.attributes
                0x000000fd       0x17 ./driverlib/pmm.o
 .MSP430.attributes
                0x00000114       0x17 ./driverlib/sd24.o
 .MSP430.attributes
                0x0000012b       0x17 ./driverlib/sfr.o
 .MSP430.attributes
                0x00000142       0x17 ./driverlib/timer_a.o
 .MSP430.attributes
                0x00000159       0x17 ./driverlib/tlv.o
 .MSP430.attributes
                0x00000170       0x17 ./driverlib/wdt.o
 .MSP430.attributes
                0x00000187       0x17 ./communication.o
 .MSP430.attributes
                0x0000019e       0x17 ./main.o
 .MSP430.attributes
                0x000001b5       0x17 ./metrology-background.o
 .MSP430.attributes
                0x000001cc       0x17 ./printf.o
 .MSP430.attributes
                0x000001e3       0x17 /home/omn/ti/gcc/bin/../lib/gcc/msp430-elf/4.9.1/430/libgcc.a(_ashrdi3.o)
 .MSP430.attributes
                0x000001fa       0x17 /home/omn/ti/gcc/bin/../lib/gcc/msp430-elf/4.9.1/430/libgcc.a(_divdi3.o)
 .MSP430.attributes
                0x00000211       0x17 /home/omn/ti/gcc/bin/../lib/gcc/msp430-elf/4.9.1/430/libgcc.a(lib2divSI.o)
 .MSP430.attributes
                0x00000228       0x17 /home/omn/ti/gcc/bin/../lib/gcc/msp430-elf/4.9.1/430/libgcc.a(epilogue.o)
 .MSP430.attributes
                0x0000023f       0x17 /home/omn/ti/gcc/bin/../lib/gcc/msp430-elf/4.9.1/430/libgcc.a(slli.o)
 .MSP430.attributes
                0x00000256       0x17 /home/omn/ti/gcc/bin/../lib/gcc/msp430-elf/4.9.1/430/libgcc.a(srai.o)
 .MSP430.attributes
                0x0000026d       0x17 /home/omn/ti/gcc/bin/../lib/gcc/msp430-elf/4.9.1/430/libgcc.a(srli.o)
 .MSP430.attributes
                0x00000284       0x17 /home/omn/ti/gcc/bin/../lib/gcc/msp430-elf/4.9.1/430/libgcc.a(lib2hw_mul.o)
 .MSP430.attributes
                0x0000029b       0x17 /home/omn/ti/gcc/bin/../lib/gcc/msp430-elf/4.9.1/430/libgcc.a(_lshrdi3.o)
 .MSP430.attributes
                0x000002b2       0x17 /home/omn/ti/gcc/bin/../lib/gcc/msp430-elf/4.9.1/430/libgcc.a(_ashldi3.o)
 .MSP430.attributes
                0x000002c9       0x17 /home/omn/ti/gcc/bin/../lib/gcc/msp430-elf/4.9.1/430/libgcc.a(_clzdi2.o)
 .MSP430.attributes
                0x000002e0       0x17 /home/omn/ti/gcc/bin/../lib/gcc/msp430-elf/4.9.1/430/libgcc.a(_clz.o)
 .MSP430.attributes
                0x000002f7       0x17 /home/omn/ti/gcc/bin/../lib/gcc/msp430-elf/4.9.1/../../../../msp430-elf/lib/430/libc.a(lib_a-memset.o)
 .MSP430.attributes
                0x0000030e       0x17 /home/omn/ti/gcc/bin/../lib/gcc/msp430-elf/4.9.1/../../../../msp430-elf/lib/430/libcrt.a(crt_bss.o)
 .MSP430.attributes
                0x00000325       0x17 /home/omn/ti/gcc/bin/../lib/gcc/msp430-elf/4.9.1/../../../../msp430-elf/lib/430/libcrt.a(crt_movedata.o)
 .MSP430.attributes
                0x0000033c       0x17 /home/omn/ti/gcc/bin/../lib/gcc/msp430-elf/4.9.1/../../../../msp430-elf/lib/430/libcrt.a(crt_main.o)
 .MSP430.attributes
                0x00000353       0x17 /home/omn/ti/gcc/bin/../lib/gcc/msp430-elf/4.9.1/../../../../msp430-elf/lib/430/libc.a(lib_a-memmove.o)
 .MSP430.attributes
                0x0000036a       0x17 /home/omn/ti/gcc/bin/../lib/gcc/msp430-elf/4.9.1/430/crtend.o
 .MSP430.attributes
                0x00000381       0x17 /home/omn/ti/gcc/bin/../lib/gcc/msp430-elf/4.9.1/../../../../msp430-elf/lib/430/crtn.o
 *(.gnu.attributes)
 *(__TI_build_attributes)

.stab
 *(.stab)

.stabstr
 *(.stabstr)

.stab.excl
 *(.stab.excl)

.stab.exclstr
 *(.stab.exclstr)

.stab.index
 *(.stab.index)

.stab.indexstr
 *(.stab.indexstr)

.comment        0x00000000       0x7c
 *(.comment)
 .comment       0x00000000       0x7c /home/omn/ti/gcc/bin/../lib/gcc/msp430-elf/4.9.1/430/crtbegin.o
                                 0x7d (størrelse inden forenkling)
 .comment       0x00000000       0x7d ./toolkit/fastarithmetic.o
 .comment       0x00000000       0x7d ./driverlib/cs.o
 .comment       0x00000000       0x7d ./driverlib/eusci_a_spi.o
 .comment       0x00000000       0x7d ./driverlib/eusci_a_uart.o
 .comment       0x00000000       0x7d ./driverlib/eusci_b_i2c.o
 .comment       0x00000000       0x7d ./driverlib/eusci_b_spi.o
 .comment       0x00000000       0x7d ./driverlib/flashctl.o
 .comment       0x00000000       0x7d ./driverlib/gpio.o
 .comment       0x00000000       0x7d ./driverlib/mpy.o
 .comment       0x00000000       0x7d ./driverlib/pmm.o
 .comment       0x00000000       0x7d ./driverlib/sd24.o
 .comment       0x00000000       0x7d ./driverlib/sfr.o
 .comment       0x00000000       0x7d ./driverlib/timer_a.o
 .comment       0x00000000       0x7d ./driverlib/tlv.o
 .comment       0x00000000       0x7d ./driverlib/wdt.o
 .comment       0x00000000       0x7d ./communication.o
 .comment       0x00000000       0x7d ./main.o
 .comment       0x00000000       0x7d ./metrology-background.o
 .comment       0x00000000       0x7d ./printf.o
 .comment       0x00000000       0x7d /home/omn/ti/gcc/bin/../lib/gcc/msp430-elf/4.9.1/430/libgcc.a(_ashrdi3.o)
 .comment       0x00000000       0x7d /home/omn/ti/gcc/bin/../lib/gcc/msp430-elf/4.9.1/430/libgcc.a(_divdi3.o)
 .comment       0x00000000       0x7d /home/omn/ti/gcc/bin/../lib/gcc/msp430-elf/4.9.1/430/libgcc.a(lib2divSI.o)
 .comment       0x00000000       0x7d /home/omn/ti/gcc/bin/../lib/gcc/msp430-elf/4.9.1/430/libgcc.a(_lshrdi3.o)
 .comment       0x00000000       0x7d /home/omn/ti/gcc/bin/../lib/gcc/msp430-elf/4.9.1/430/libgcc.a(_ashldi3.o)
 .comment       0x00000000       0x7d /home/omn/ti/gcc/bin/../lib/gcc/msp430-elf/4.9.1/430/libgcc.a(_clzdi2.o)
 .comment       0x00000000       0x7d /home/omn/ti/gcc/bin/../lib/gcc/msp430-elf/4.9.1/430/libgcc.a(_clz.o)
 .comment       0x00000000       0x7d /home/omn/ti/gcc/bin/../lib/gcc/msp430-elf/4.9.1/../../../../msp430-elf/lib/430/libc.a(lib_a-memset.o)
 .comment       0x00000000       0x7d /home/omn/ti/gcc/bin/../lib/gcc/msp430-elf/4.9.1/../../../../msp430-elf/lib/430/libc.a(lib_a-memmove.o)
 .comment       0x00000000       0x7d /home/omn/ti/gcc/bin/../lib/gcc/msp430-elf/4.9.1/430/crtend.o

.debug
 *(.debug)

.line
 *(.line)

.debug_srcinfo
 *(.debug_srcinfo)

.debug_sfnames
 *(.debug_sfnames)

.debug_aranges  0x00000000      0x2ac
 *(.debug_aranges)
 .debug_aranges
                0x00000000       0x1c /home/omn/ti/gcc/bin/../lib/gcc/msp430-elf/4.9.1/../../../../msp430-elf/lib/430/crt0.o
 .debug_aranges
                0x0000001c       0x14 ./toolkit/fastarithmetic.o
 .debug_aranges
                0x00000030       0x14 ./driverlib/cs.o
 .debug_aranges
                0x00000044       0x14 ./driverlib/eusci_a_spi.o
 .debug_aranges
                0x00000058       0x14 ./driverlib/eusci_a_uart.o
 .debug_aranges
                0x0000006c       0x14 ./driverlib/eusci_b_i2c.o
 .debug_aranges
                0x00000080       0x14 ./driverlib/eusci_b_spi.o
 .debug_aranges
                0x00000094       0x14 ./driverlib/flashctl.o
 .debug_aranges
                0x000000a8       0x14 ./driverlib/gpio.o
 .debug_aranges
                0x000000bc       0x14 ./driverlib/mpy.o
 .debug_aranges
                0x000000d0       0x14 ./driverlib/pmm.o
 .debug_aranges
                0x000000e4       0x14 ./driverlib/sd24.o
 .debug_aranges
                0x000000f8       0x14 ./driverlib/sfr.o
 .debug_aranges
                0x0000010c       0x14 ./driverlib/timer_a.o
 .debug_aranges
                0x00000120       0x14 ./driverlib/tlv.o
 .debug_aranges
                0x00000134       0x14 ./driverlib/wdt.o
 .debug_aranges
                0x00000148       0x14 ./communication.o
 .debug_aranges
                0x0000015c       0x14 ./main.o
 .debug_aranges
                0x00000170       0x14 ./metrology-background.o
 .debug_aranges
                0x00000184       0x14 ./printf.o
 .debug_aranges
                0x00000198       0x14 /home/omn/ti/gcc/bin/../lib/gcc/msp430-elf/4.9.1/430/libgcc.a(_ashrdi3.o)
 .debug_aranges
                0x000001ac       0x14 /home/omn/ti/gcc/bin/../lib/gcc/msp430-elf/4.9.1/430/libgcc.a(_divdi3.o)
 .debug_aranges
                0x000001c0       0x24 /home/omn/ti/gcc/bin/../lib/gcc/msp430-elf/4.9.1/430/libgcc.a(lib2divSI.o)
 .debug_aranges
                0x000001e4       0x14 /home/omn/ti/gcc/bin/../lib/gcc/msp430-elf/4.9.1/430/libgcc.a(_lshrdi3.o)
 .debug_aranges
                0x000001f8       0x14 /home/omn/ti/gcc/bin/../lib/gcc/msp430-elf/4.9.1/430/libgcc.a(_ashldi3.o)
 .debug_aranges
                0x0000020c       0x14 /home/omn/ti/gcc/bin/../lib/gcc/msp430-elf/4.9.1/430/libgcc.a(_clzdi2.o)
 .debug_aranges
                0x00000220       0x10 /home/omn/ti/gcc/bin/../lib/gcc/msp430-elf/4.9.1/430/libgcc.a(_clz.o)
 .debug_aranges
                0x00000230       0x14 /home/omn/ti/gcc/bin/../lib/gcc/msp430-elf/4.9.1/../../../../msp430-elf/lib/430/libc.a(lib_a-memset.o)
 .debug_aranges
                0x00000244       0x14 /home/omn/ti/gcc/bin/../lib/gcc/msp430-elf/4.9.1/../../../../msp430-elf/lib/430/libcrt.a(crt_bss.o)
 .debug_aranges
                0x00000258       0x14 /home/omn/ti/gcc/bin/../lib/gcc/msp430-elf/4.9.1/../../../../msp430-elf/lib/430/libcrt.a(crt_movedata.o)
 .debug_aranges
                0x0000026c       0x14 /home/omn/ti/gcc/bin/../lib/gcc/msp430-elf/4.9.1/../../../../msp430-elf/lib/430/libcrt.a(crt_main.o)
 .debug_aranges
                0x00000280       0x14 /home/omn/ti/gcc/bin/../lib/gcc/msp430-elf/4.9.1/../../../../msp430-elf/lib/430/libc.a(lib_a-memmove.o)
 .debug_aranges
                0x00000294       0x18 /home/omn/ti/gcc/bin/../lib/gcc/msp430-elf/4.9.1/../../../../msp430-elf/lib/430/crtn.o

.debug_pubnames
 *(.debug_pubnames)

.debug_info     0x00000000     0x5927
 *(.debug_info .gnu.linkonce.wi.*)
 .debug_info    0x00000000       0xd2 /home/omn/ti/gcc/bin/../lib/gcc/msp430-elf/4.9.1/../../../../msp430-elf/lib/430/crt0.o
 .debug_info    0x000000d2      0x254 ./toolkit/fastarithmetic.o
 .debug_info    0x00000326      0x20f ./driverlib/cs.o
 .debug_info    0x00000535      0x4b8 ./driverlib/eusci_a_spi.o
 .debug_info    0x000009ed      0x489 ./driverlib/eusci_a_uart.o
 .debug_info    0x00000e76      0x920 ./driverlib/eusci_b_i2c.o
 .debug_info    0x00001796      0x4b8 ./driverlib/eusci_b_spi.o
 .debug_info    0x00001c4e      0x395 ./driverlib/flashctl.o
 .debug_info    0x00001fe3      0x476 ./driverlib/gpio.o
 .debug_info    0x00002459      0x19c ./driverlib/mpy.o
 .debug_info    0x000025f5      0x213 ./driverlib/pmm.o
 .debug_info    0x00002808      0x641 ./driverlib/sd24.o
 .debug_info    0x00002e49      0x12c ./driverlib/sfr.o
 .debug_info    0x00002f75      0x878 ./driverlib/timer_a.o
 .debug_info    0x000037ed      0x137 ./driverlib/tlv.o
 .debug_info    0x00003924      0x1af ./driverlib/wdt.o
 .debug_info    0x00003ad3      0x1f9 ./communication.o
 .debug_info    0x00003ccc      0x2bd ./main.o
 .debug_info    0x00003f89      0x771 ./metrology-background.o
 .debug_info    0x000046fa      0x19f ./printf.o
 .debug_info    0x00004899      0x17d /home/omn/ti/gcc/bin/../lib/gcc/msp430-elf/4.9.1/430/libgcc.a(_ashrdi3.o)
 .debug_info    0x00004a16      0x25d /home/omn/ti/gcc/bin/../lib/gcc/msp430-elf/4.9.1/430/libgcc.a(_divdi3.o)
 .debug_info    0x00004c73      0x24c /home/omn/ti/gcc/bin/../lib/gcc/msp430-elf/4.9.1/430/libgcc.a(lib2divSI.o)
 .debug_info    0x00004ebf      0x17c /home/omn/ti/gcc/bin/../lib/gcc/msp430-elf/4.9.1/430/libgcc.a(_lshrdi3.o)
 .debug_info    0x0000503b      0x17c /home/omn/ti/gcc/bin/../lib/gcc/msp430-elf/4.9.1/430/libgcc.a(_ashldi3.o)
 .debug_info    0x000051b7      0x1b7 /home/omn/ti/gcc/bin/../lib/gcc/msp430-elf/4.9.1/430/libgcc.a(_clzdi2.o)
 .debug_info    0x0000536e       0xb0 /home/omn/ti/gcc/bin/../lib/gcc/msp430-elf/4.9.1/430/libgcc.a(_clz.o)
 .debug_info    0x0000541e       0xc9 /home/omn/ti/gcc/bin/../lib/gcc/msp430-elf/4.9.1/../../../../msp430-elf/lib/430/libc.a(lib_a-memset.o)
 .debug_info    0x000054e7       0xd2 /home/omn/ti/gcc/bin/../lib/gcc/msp430-elf/4.9.1/../../../../msp430-elf/lib/430/libcrt.a(crt_bss.o)
 .debug_info    0x000055b9       0xd2 /home/omn/ti/gcc/bin/../lib/gcc/msp430-elf/4.9.1/../../../../msp430-elf/lib/430/libcrt.a(crt_movedata.o)
 .debug_info    0x0000568b       0xd2 /home/omn/ti/gcc/bin/../lib/gcc/msp430-elf/4.9.1/../../../../msp430-elf/lib/430/libcrt.a(crt_main.o)
 .debug_info    0x0000575d       0xf8 /home/omn/ti/gcc/bin/../lib/gcc/msp430-elf/4.9.1/../../../../msp430-elf/lib/430/libc.a(lib_a-memmove.o)
 .debug_info    0x00005855       0xd2 /home/omn/ti/gcc/bin/../lib/gcc/msp430-elf/4.9.1/../../../../msp430-elf/lib/430/crtn.o

.debug_abbrev   0x00000000     0x1a41
 *(.debug_abbrev)
 .debug_abbrev  0x00000000       0x12 /home/omn/ti/gcc/bin/../lib/gcc/msp430-elf/4.9.1/../../../../msp430-elf/lib/430/crt0.o
 .debug_abbrev  0x00000012       0xe0 ./toolkit/fastarithmetic.o
 .debug_abbrev  0x000000f2       0xdf ./driverlib/cs.o
 .debug_abbrev  0x000001d1       0xda ./driverlib/eusci_a_spi.o
 .debug_abbrev  0x000002ab       0xf8 ./driverlib/eusci_a_uart.o
 .debug_abbrev  0x000003a3      0x13d ./driverlib/eusci_b_i2c.o
 .debug_abbrev  0x000004e0       0xda ./driverlib/eusci_b_spi.o
 .debug_abbrev  0x000005ba      0x146 ./driverlib/flashctl.o
 .debug_abbrev  0x00000700       0xdf ./driverlib/gpio.o
 .debug_abbrev  0x000007df       0xa8 ./driverlib/mpy.o
 .debug_abbrev  0x00000887       0xc1 ./driverlib/pmm.o
 .debug_abbrev  0x00000948      0x11d ./driverlib/sd24.o
 .debug_abbrev  0x00000a65       0x97 ./driverlib/sfr.o
 .debug_abbrev  0x00000afc      0x182 ./driverlib/timer_a.o
 .debug_abbrev  0x00000c7e       0xa6 ./driverlib/tlv.o
 .debug_abbrev  0x00000d24       0x8a ./driverlib/wdt.o
 .debug_abbrev  0x00000dae      0x10a ./communication.o
 .debug_abbrev  0x00000eb8      0x101 ./main.o
 .debug_abbrev  0x00000fb9      0x1e7 ./metrology-background.o
 .debug_abbrev  0x000011a0       0xd6 ./printf.o
 .debug_abbrev  0x00001276       0xef /home/omn/ti/gcc/bin/../lib/gcc/msp430-elf/4.9.1/430/libgcc.a(_ashrdi3.o)
 .debug_abbrev  0x00001365      0x138 /home/omn/ti/gcc/bin/../lib/gcc/msp430-elf/4.9.1/430/libgcc.a(_divdi3.o)
 .debug_abbrev  0x0000149d       0xc3 /home/omn/ti/gcc/bin/../lib/gcc/msp430-elf/4.9.1/430/libgcc.a(lib2divSI.o)
 .debug_abbrev  0x00001560       0xfe /home/omn/ti/gcc/bin/../lib/gcc/msp430-elf/4.9.1/430/libgcc.a(_lshrdi3.o)
 .debug_abbrev  0x0000165e       0xfe /home/omn/ti/gcc/bin/../lib/gcc/msp430-elf/4.9.1/430/libgcc.a(_ashldi3.o)
 .debug_abbrev  0x0000175c      0x114 /home/omn/ti/gcc/bin/../lib/gcc/msp430-elf/4.9.1/430/libgcc.a(_clzdi2.o)
 .debug_abbrev  0x00001870       0x5d /home/omn/ti/gcc/bin/../lib/gcc/msp430-elf/4.9.1/430/libgcc.a(_clz.o)
 .debug_abbrev  0x000018cd       0x8c /home/omn/ti/gcc/bin/../lib/gcc/msp430-elf/4.9.1/../../../../msp430-elf/lib/430/libc.a(lib_a-memset.o)
 .debug_abbrev  0x00001959       0x14 /home/omn/ti/gcc/bin/../lib/gcc/msp430-elf/4.9.1/../../../../msp430-elf/lib/430/libcrt.a(crt_bss.o)
 .debug_abbrev  0x0000196d       0x14 /home/omn/ti/gcc/bin/../lib/gcc/msp430-elf/4.9.1/../../../../msp430-elf/lib/430/libcrt.a(crt_movedata.o)
 .debug_abbrev  0x00001981       0x14 /home/omn/ti/gcc/bin/../lib/gcc/msp430-elf/4.9.1/../../../../msp430-elf/lib/430/libcrt.a(crt_main.o)
 .debug_abbrev  0x00001995       0x9a /home/omn/ti/gcc/bin/../lib/gcc/msp430-elf/4.9.1/../../../../msp430-elf/lib/430/libc.a(lib_a-memmove.o)
 .debug_abbrev  0x00001a2f       0x12 /home/omn/ti/gcc/bin/../lib/gcc/msp430-elf/4.9.1/../../../../msp430-elf/lib/430/crtn.o

.debug_line     0x00000000     0x5171
 *(.debug_line)
 .debug_line    0x00000000       0xf9 /home/omn/ti/gcc/bin/../lib/gcc/msp430-elf/4.9.1/../../../../msp430-elf/lib/430/crt0.o
 .debug_line    0x000000f9      0x1ab ./toolkit/fastarithmetic.o
 .debug_line    0x000002a4      0x2ae ./driverlib/cs.o
 .debug_line    0x00000552      0x3f8 ./driverlib/eusci_a_spi.o
 .debug_line    0x0000094a      0x466 ./driverlib/eusci_a_uart.o
 .debug_line    0x00000db0      0x830 ./driverlib/eusci_b_i2c.o
 .debug_line    0x000015e0      0x3f2 ./driverlib/eusci_b_spi.o
 .debug_line    0x000019d2      0x4f2 ./driverlib/flashctl.o
 .debug_line    0x00001ec4      0x481 ./driverlib/gpio.o
 .debug_line    0x00002345      0x26e ./driverlib/mpy.o
 .debug_line    0x000025b3      0x2da ./driverlib/pmm.o
 .debug_line    0x0000288d      0x498 ./driverlib/sd24.o
 .debug_line    0x00002d25      0x23e ./driverlib/sfr.o
 .debug_line    0x00002f63      0x5be ./driverlib/timer_a.o
 .debug_line    0x00003521      0x270 ./driverlib/tlv.o
 .debug_line    0x00003791      0x28c ./driverlib/wdt.o
 .debug_line    0x00003a1d      0x36c ./communication.o
 .debug_line    0x00003d89      0x403 ./main.o
 .debug_line    0x0000418c      0x675 ./metrology-background.o
 .debug_line    0x00004801      0x1f4 ./printf.o
 .debug_line    0x000049f5       0x68 /home/omn/ti/gcc/bin/../lib/gcc/msp430-elf/4.9.1/430/libgcc.a(_ashrdi3.o)
 .debug_line    0x00004a5d       0x68 /home/omn/ti/gcc/bin/../lib/gcc/msp430-elf/4.9.1/430/libgcc.a(_divdi3.o)
 .debug_line    0x00004ac5       0x7e /home/omn/ti/gcc/bin/../lib/gcc/msp430-elf/4.9.1/430/libgcc.a(lib2divSI.o)
 .debug_line    0x00004b43       0x68 /home/omn/ti/gcc/bin/../lib/gcc/msp430-elf/4.9.1/430/libgcc.a(_lshrdi3.o)
 .debug_line    0x00004bab       0x68 /home/omn/ti/gcc/bin/../lib/gcc/msp430-elf/4.9.1/430/libgcc.a(_ashldi3.o)
 .debug_line    0x00004c13       0xb2 /home/omn/ti/gcc/bin/../lib/gcc/msp430-elf/4.9.1/430/libgcc.a(_clzdi2.o)
 .debug_line    0x00004cc5       0x68 /home/omn/ti/gcc/bin/../lib/gcc/msp430-elf/4.9.1/430/libgcc.a(_clz.o)
 .debug_line    0x00004d2d      0x117 /home/omn/ti/gcc/bin/../lib/gcc/msp430-elf/4.9.1/../../../../msp430-elf/lib/430/libc.a(lib_a-memset.o)
 .debug_line    0x00004e44       0x82 /home/omn/ti/gcc/bin/../lib/gcc/msp430-elf/4.9.1/../../../../msp430-elf/lib/430/libcrt.a(crt_bss.o)
 .debug_line    0x00004ec6       0x8e /home/omn/ti/gcc/bin/../lib/gcc/msp430-elf/4.9.1/../../../../msp430-elf/lib/430/libcrt.a(crt_movedata.o)
 .debug_line    0x00004f54       0x7c /home/omn/ti/gcc/bin/../lib/gcc/msp430-elf/4.9.1/../../../../msp430-elf/lib/430/libcrt.a(crt_main.o)
 .debug_line    0x00004fd0      0x118 /home/omn/ti/gcc/bin/../lib/gcc/msp430-elf/4.9.1/../../../../msp430-elf/lib/430/libc.a(lib_a-memmove.o)
 .debug_line    0x000050e8       0x89 /home/omn/ti/gcc/bin/../lib/gcc/msp430-elf/4.9.1/../../../../msp430-elf/lib/430/crtn.o

.debug_frame    0x00000000     0x16e2
 *(.debug_frame)
 .debug_frame   0x00000000       0xc8 ./toolkit/fastarithmetic.o
 .debug_frame   0x000000c8       0x82 ./driverlib/cs.o
 .debug_frame   0x0000014a      0x162 ./driverlib/eusci_a_spi.o
 .debug_frame   0x000002ac      0x166 ./driverlib/eusci_a_uart.o
 .debug_frame   0x00000412      0x30a ./driverlib/eusci_b_i2c.o
 .debug_frame   0x0000071c      0x162 ./driverlib/eusci_b_spi.o
 .debug_frame   0x0000087e       0xee ./driverlib/flashctl.o
 .debug_frame   0x0000096c      0x116 ./driverlib/gpio.o
 .debug_frame   0x00000a82       0x82 ./driverlib/mpy.o
 .debug_frame   0x00000b04       0xa2 ./driverlib/pmm.o
 .debug_frame   0x00000ba6      0x190 ./driverlib/sd24.o
 .debug_frame   0x00000d36       0x62 ./driverlib/sfr.o
 .debug_frame   0x00000d98      0x26a ./driverlib/timer_a.o
 .debug_frame   0x00001002       0x3a ./driverlib/tlv.o
 .debug_frame   0x0000103c       0x76 ./driverlib/wdt.o
 .debug_frame   0x000010b2       0x78 ./communication.o
 .debug_frame   0x0000112a       0x52 ./main.o
 .debug_frame   0x0000117c      0x18e ./metrology-background.o
 .debug_frame   0x0000130a       0xca ./printf.o
 .debug_frame   0x000013d4       0x64 /home/omn/ti/gcc/bin/../lib/gcc/msp430-elf/4.9.1/430/libgcc.a(_ashrdi3.o)
 .debug_frame   0x00001438       0x64 /home/omn/ti/gcc/bin/../lib/gcc/msp430-elf/4.9.1/430/libgcc.a(_divdi3.o)
 .debug_frame   0x0000149c       0xfe /home/omn/ti/gcc/bin/../lib/gcc/msp430-elf/4.9.1/430/libgcc.a(lib2divSI.o)
 .debug_frame   0x0000159a       0x64 /home/omn/ti/gcc/bin/../lib/gcc/msp430-elf/4.9.1/430/libgcc.a(_lshrdi3.o)
 .debug_frame   0x000015fe       0x64 /home/omn/ti/gcc/bin/../lib/gcc/msp430-elf/4.9.1/430/libgcc.a(_ashldi3.o)
 .debug_frame   0x00001662       0x3a /home/omn/ti/gcc/bin/../lib/gcc/msp430-elf/4.9.1/430/libgcc.a(_clzdi2.o)
 .debug_frame   0x0000169c       0x1e /home/omn/ti/gcc/bin/../lib/gcc/msp430-elf/4.9.1/../../../../msp430-elf/lib/430/libc.a(lib_a-memset.o)
 .debug_frame   0x000016ba       0x28 /home/omn/ti/gcc/bin/../lib/gcc/msp430-elf/4.9.1/../../../../msp430-elf/lib/430/libc.a(lib_a-memmove.o)

.debug_str      0x00000000    0x11910
 *(.debug_str)
 .debug_str     0x00000000     0x2211 ./toolkit/fastarithmetic.o
                               0x2389 (størrelse inden forenkling)
 .debug_str     0x00002211     0x8008 ./driverlib/cs.o
                               0xa34c (størrelse inden forenkling)
 .debug_str     0x0000a219      0x580 ./driverlib/eusci_a_spi.o
                               0xa6cd (størrelse inden forenkling)
 .debug_str     0x0000a799      0x8c4 ./driverlib/eusci_a_uart.o
                               0xaa33 (størrelse inden forenkling)
 .debug_str     0x0000b05d      0xb75 ./driverlib/eusci_b_i2c.o
                               0xacd9 (størrelse inden forenkling)
 .debug_str     0x0000bbd2      0x50d ./driverlib/eusci_b_spi.o
                               0xa6cd (størrelse inden forenkling)
 .debug_str     0x0000c0df      0x24e ./driverlib/flashctl.o
                               0xa396 (størrelse inden forenkling)
 .debug_str     0x0000c32d      0x523 ./driverlib/gpio.o
                               0xa643 (størrelse inden forenkling)
 .debug_str     0x0000c850      0x14b ./driverlib/mpy.o
                               0xa26e (størrelse inden forenkling)
 .debug_str     0x0000c99b      0x211 ./driverlib/pmm.o
                               0xa357 (størrelse inden forenkling)
 .debug_str     0x0000cbac      0x545 ./driverlib/sd24.o
                               0xa687 (størrelse inden forenkling)
 .debug_str     0x0000d0f1      0x16e ./driverlib/sfr.o
                               0xa27d (størrelse inden forenkling)
 .debug_str     0x0000d25f      0xc6d ./driverlib/timer_a.o
                               0xadd1 (størrelse inden forenkling)
 .debug_str     0x0000decc      0x3e1 ./driverlib/tlv.o
                               0xa4f6 (størrelse inden forenkling)
 .debug_str     0x0000e2ad      0x158 ./driverlib/wdt.o
                               0xa273 (størrelse inden forenkling)
 .debug_str     0x0000e405      0x1a4 ./communication.o
                               0xc74e (størrelse inden forenkling)
 .debug_str     0x0000e5a9       0xae ./main.o
                               0xc891 (størrelse inden forenkling)
 .debug_str     0x0000e657     0x2c96 ./metrology-background.o
                               0xf8a8 (størrelse inden forenkling)
 .debug_str     0x000112ed       0x4d ./printf.o
                               0x1986 (størrelse inden forenkling)
 .debug_str     0x0001133a      0x218 /home/omn/ti/gcc/bin/../lib/gcc/msp430-elf/4.9.1/430/libgcc.a(_ashrdi3.o)
                                0x2a8 (størrelse inden forenkling)
 .debug_str     0x00011552      0x15d /home/omn/ti/gcc/bin/../lib/gcc/msp430-elf/4.9.1/430/libgcc.a(_divdi3.o)
                                0x2c6 (størrelse inden forenkling)
 .debug_str     0x000116af       0xa8 /home/omn/ti/gcc/bin/../lib/gcc/msp430-elf/4.9.1/430/libgcc.a(lib2divSI.o)
                                0x206 (størrelse inden forenkling)
 .debug_str     0x00011757        0xa /home/omn/ti/gcc/bin/../lib/gcc/msp430-elf/4.9.1/430/libgcc.a(_lshrdi3.o)
                                0x2a8 (størrelse inden forenkling)
 .debug_str     0x00011761        0xa /home/omn/ti/gcc/bin/../lib/gcc/msp430-elf/4.9.1/430/libgcc.a(_ashldi3.o)
                                0x2a8 (størrelse inden forenkling)
 .debug_str     0x0001176b       0x25 /home/omn/ti/gcc/bin/../lib/gcc/msp430-elf/4.9.1/430/libgcc.a(_clzdi2.o)
                                0x2b2 (størrelse inden forenkling)
 .debug_str     0x00000000      0x26b /home/omn/ti/gcc/bin/../lib/gcc/msp430-elf/4.9.1/430/libgcc.a(_clz.o)
 .debug_str     0x00011790      0x11f /home/omn/ti/gcc/bin/../lib/gcc/msp430-elf/4.9.1/../../../../msp430-elf/lib/430/libc.a(lib_a-memset.o)
                                0x1b8 (størrelse inden forenkling)
 .debug_str     0x000118af       0x61 /home/omn/ti/gcc/bin/../lib/gcc/msp430-elf/4.9.1/../../../../msp430-elf/lib/430/libc.a(lib_a-memmove.o)
                                0x1d3 (størrelse inden forenkling)

.debug_loc      0x00000000     0x1b22
 *(.debug_loc)
 .debug_loc     0x00000000       0xb0 ./toolkit/fastarithmetic.o
 .debug_loc     0x000000b0       0x64 ./driverlib/cs.o
 .debug_loc     0x00000114      0x150 ./driverlib/eusci_a_spi.o
 .debug_loc     0x00000264      0x154 ./driverlib/eusci_a_uart.o
 .debug_loc     0x000003b8      0x2f8 ./driverlib/eusci_b_i2c.o
 .debug_loc     0x000006b0      0x150 ./driverlib/eusci_b_spi.o
 .debug_loc     0x00000800       0xdc ./driverlib/flashctl.o
 .debug_loc     0x000008dc      0x104 ./driverlib/gpio.o
 .debug_loc     0x000009e0       0x64 ./driverlib/mpy.o
 .debug_loc     0x00000a44       0x78 ./driverlib/pmm.o
 .debug_loc     0x00000abc      0x179 ./driverlib/sd24.o
 .debug_loc     0x00000c35       0x50 ./driverlib/sfr.o
 .debug_loc     0x00000c85      0x250 ./driverlib/timer_a.o
 .debug_loc     0x00000ed5       0x28 ./driverlib/tlv.o
 .debug_loc     0x00000efd       0x64 ./driverlib/wdt.o
 .debug_loc     0x00000f61       0x58 ./communication.o
 .debug_loc     0x00000fb9       0x28 ./main.o
 .debug_loc     0x00000fe1      0x142 ./metrology-background.o
 .debug_loc     0x00001123       0xac ./printf.o
 .debug_loc     0x000011cf       0x61 /home/omn/ti/gcc/bin/../lib/gcc/msp430-elf/4.9.1/430/libgcc.a(_ashrdi3.o)
 .debug_loc     0x00001230      0x3e0 /home/omn/ti/gcc/bin/../lib/gcc/msp430-elf/4.9.1/430/libgcc.a(_divdi3.o)
 .debug_loc     0x00001610      0x25f /home/omn/ti/gcc/bin/../lib/gcc/msp430-elf/4.9.1/430/libgcc.a(lib2divSI.o)
 .debug_loc     0x0000186f       0x46 /home/omn/ti/gcc/bin/../lib/gcc/msp430-elf/4.9.1/430/libgcc.a(_lshrdi3.o)
 .debug_loc     0x000018b5       0x46 /home/omn/ti/gcc/bin/../lib/gcc/msp430-elf/4.9.1/430/libgcc.a(_ashldi3.o)
 .debug_loc     0x000018fb       0x98 /home/omn/ti/gcc/bin/../lib/gcc/msp430-elf/4.9.1/430/libgcc.a(_clzdi2.o)
 .debug_loc     0x00001993       0x5f /home/omn/ti/gcc/bin/../lib/gcc/msp430-elf/4.9.1/../../../../msp430-elf/lib/430/libc.a(lib_a-memset.o)
 .debug_loc     0x000019f2      0x130 /home/omn/ti/gcc/bin/../lib/gcc/msp430-elf/4.9.1/../../../../msp430-elf/lib/430/libc.a(lib_a-memmove.o)

.debug_macinfo
 *(.debug_macinfo)

.debug_weaknames
 *(.debug_weaknames)

.debug_funcnames
 *(.debug_funcnames)

.debug_typenames
 *(.debug_typenames)

.debug_varnames
 *(.debug_varnames)

/DISCARD/
 *(.note.GNU-stack)
LOAD /home/omn/ti/gcc/bin/../lib/gcc/msp430-elf/4.9.1/430/libgcc.a
LOAD /home/omn/ti/gcc/bin/../lib/gcc/msp430-elf/4.9.1/430/crtend.o
LOAD /home/omn/ti/gcc/bin/../lib/gcc/msp430-elf/4.9.1/../../../../msp430-elf/lib/430/crtn.o
LOAD /home/omn/ti/gcc/bin/../lib/gcc/msp430-elf/4.9.1/430/libgcc.a
OUTPUT(EnergyAgent-1Ch.elf elf32-msp430)

.debug_ranges   0x00000000       0x74
 .debug_ranges  0x00000000       0x14 /home/omn/ti/gcc/bin/../lib/gcc/msp430-elf/4.9.1/../../../../msp430-elf/lib/430/crt0.o
 .debug_ranges  0x00000014        0x8 /home/omn/ti/gcc/bin/../lib/gcc/msp430-elf/4.9.1/430/libgcc.a(_ashrdi3.o)
 .debug_ranges  0x0000001c        0x8 /home/omn/ti/gcc/bin/../lib/gcc/msp430-elf/4.9.1/430/libgcc.a(_divdi3.o)
 .debug_ranges  0x00000024       0x18 /home/omn/ti/gcc/bin/../lib/gcc/msp430-elf/4.9.1/430/libgcc.a(lib2divSI.o)
 .debug_ranges  0x0000003c        0x8 /home/omn/ti/gcc/bin/../lib/gcc/msp430-elf/4.9.1/430/libgcc.a(_lshrdi3.o)
 .debug_ranges  0x00000044        0x8 /home/omn/ti/gcc/bin/../lib/gcc/msp430-elf/4.9.1/430/libgcc.a(_ashldi3.o)
 .debug_ranges  0x0000004c        0x8 /home/omn/ti/gcc/bin/../lib/gcc/msp430-elf/4.9.1/430/libgcc.a(_clzdi2.o)
 .debug_ranges  0x00000054        0x8 /home/omn/ti/gcc/bin/../lib/gcc/msp430-elf/4.9.1/../../../../msp430-elf/lib/430/libc.a(lib_a-memset.o)
 .debug_ranges  0x0000005c        0x8 /home/omn/ti/gcc/bin/../lib/gcc/msp430-elf/4.9.1/../../../../msp430-elf/lib/430/libc.a(lib_a-memmove.o)
 .debug_ranges  0x00000064       0x10 /home/omn/ti/gcc/bin/../lib/gcc/msp430-elf/4.9.1/../../../../msp430-elf/lib/430/crtn.o

.debug_macro    0x00000000     0x6191
 .debug_macro   0x00000000       0x42 ./toolkit/fastarithmetic.o
 .debug_macro   0x00000042      0x4f6 ./toolkit/fastarithmetic.o
 .debug_macro   0x00000538       0x16 ./toolkit/fastarithmetic.o
 .debug_macro   0x0000054e       0x44 ./toolkit/fastarithmetic.o
 .debug_macro   0x00000592      0x209 ./toolkit/fastarithmetic.o
 .debug_macro   0x0000079b       0xda ./driverlib/cs.o
 .debug_macro   0x00000875       0x10 ./driverlib/cs.o
 .debug_macro   0x00000885       0x16 ./driverlib/cs.o
 .debug_macro   0x0000089b       0x58 ./driverlib/cs.o
 .debug_macro   0x000008f3       0xb8 ./driverlib/cs.o
 .debug_macro   0x000009ab      0x1ed ./driverlib/cs.o
 .debug_macro   0x00000b98     0x1968 ./driverlib/cs.o
 .debug_macro   0x00002500     0x1c18 ./driverlib/cs.o
 .debug_macro   0x00004118       0x22 ./driverlib/cs.o
 .debug_macro   0x0000413a       0x28 ./driverlib/cs.o
 .debug_macro   0x00004162       0x4c ./driverlib/cs.o
 .debug_macro   0x000041ae       0x4c ./driverlib/cs.o
 .debug_macro   0x000041fa       0x12 ./driverlib/cs.o
 .debug_macro   0x0000420c       0x43 ./driverlib/cs.o
 .debug_macro   0x0000424f       0xa3 ./driverlib/cs.o
 .debug_macro   0x000042f2       0x10 ./driverlib/cs.o
 .debug_macro   0x00004302       0xd4 ./driverlib/eusci_a_spi.o
 .debug_macro   0x000043d6       0x81 ./driverlib/eusci_a_spi.o
 .debug_macro   0x00004457       0xd4 ./driverlib/eusci_a_uart.o
 .debug_macro   0x0000452b      0x11d ./driverlib/eusci_a_uart.o
 .debug_macro   0x00004648       0xd4 ./driverlib/eusci_b_i2c.o
 .debug_macro   0x0000471c      0x103 ./driverlib/eusci_b_i2c.o
 .debug_macro   0x0000481f       0xd4 ./driverlib/eusci_b_spi.o
 .debug_macro   0x000048f3       0x81 ./driverlib/eusci_b_spi.o
 .debug_macro   0x00004974       0xd4 ./driverlib/flashctl.o
 .debug_macro   0x00004a48       0x2e ./driverlib/flashctl.o
 .debug_macro   0x00004a76       0xd4 ./driverlib/gpio.o
 .debug_macro   0x00004b4a      0x110 ./driverlib/gpio.o
 .debug_macro   0x00004c5a       0xd4 ./driverlib/mpy.o
 .debug_macro   0x00004d2e       0x22 ./driverlib/mpy.o
 .debug_macro   0x00004d50       0xd4 ./driverlib/pmm.o
 .debug_macro   0x00004e24       0x40 ./driverlib/pmm.o
 .debug_macro   0x00004e64       0xd4 ./driverlib/sd24.o
 .debug_macro   0x00004f38       0xc5 ./driverlib/sd24.o
 .debug_macro   0x00004ffd       0xd4 ./driverlib/sfr.o
 .debug_macro   0x000050d1       0x2e ./driverlib/sfr.o
 .debug_macro   0x000050ff       0xd4 ./driverlib/timer_a.o
 .debug_macro   0x000051d3      0x175 ./driverlib/timer_a.o
 .debug_macro   0x00005348       0xd4 ./driverlib/tlv.o
 .debug_macro   0x0000541c       0x82 ./driverlib/tlv.o
 .debug_macro   0x0000549e       0xd4 ./driverlib/wdt.o
 .debug_macro   0x00005572       0x2e ./driverlib/wdt.o
 .debug_macro   0x000055a0      0x12d ./communication.o
 .debug_macro   0x000056cd       0x58 ./communication.o
 .debug_macro   0x00005725      0x130 ./main.o
 .debug_macro   0x00005855       0x10 ./main.o
 .debug_macro   0x00005865      0x235 ./metrology-background.o
 .debug_macro   0x00005a9a      0x166 ./metrology-background.o
 .debug_macro   0x00005c00       0x52 ./metrology-background.o
 .debug_macro   0x00005c52       0x16 ./metrology-background.o
 .debug_macro   0x00005c68       0x43 ./metrology-background.o
 .debug_macro   0x00005cab      0x19c ./metrology-background.o
 .debug_macro   0x00005e47      0x2a3 ./metrology-background.o
 .debug_macro   0x000060ea       0x10 ./metrology-background.o
 .debug_macro   0x000060fa       0x35 ./metrology-background.o
 .debug_macro   0x0000612f       0x10 ./metrology-background.o
 .debug_macro   0x0000613f       0x16 ./metrology-background.o
 .debug_macro   0x00006155       0x22 ./metrology-background.o
 .debug_macro   0x00006177       0x1a ./printf.o

.debug_line.text.__ashrdi3
                0x00000000       0x51
 .debug_line.text.__ashrdi3
                0x00000000       0x51 /home/omn/ti/gcc/bin/../lib/gcc/msp430-elf/4.9.1/430/libgcc.a(_ashrdi3.o)

.debug_line_end
                0x00000000        0x0
 .debug_line_end
                0x00000000        0x0 /home/omn/ti/gcc/bin/../lib/gcc/msp430-elf/4.9.1/430/libgcc.a(_ashrdi3.o)
 .debug_line_end
                0x00000000        0x0 /home/omn/ti/gcc/bin/../lib/gcc/msp430-elf/4.9.1/430/libgcc.a(_divdi3.o)
 .debug_line_end
                0x00000000        0x0 /home/omn/ti/gcc/bin/../lib/gcc/msp430-elf/4.9.1/430/libgcc.a(lib2divSI.o)
 .debug_line_end
                0x00000000        0x0 /home/omn/ti/gcc/bin/../lib/gcc/msp430-elf/4.9.1/430/libgcc.a(_lshrdi3.o)
 .debug_line_end
                0x00000000        0x0 /home/omn/ti/gcc/bin/../lib/gcc/msp430-elf/4.9.1/430/libgcc.a(_ashldi3.o)
 .debug_line_end
                0x00000000        0x0 /home/omn/ti/gcc/bin/../lib/gcc/msp430-elf/4.9.1/430/libgcc.a(_clzdi2.o)
 .debug_line_end
                0x00000000        0x0 /home/omn/ti/gcc/bin/../lib/gcc/msp430-elf/4.9.1/430/libgcc.a(_clz.o)
 .debug_line_end
                0x00000000        0x0 /home/omn/ti/gcc/bin/../lib/gcc/msp430-elf/4.9.1/../../../../msp430-elf/lib/430/libc.a(lib_a-memset.o)
 .debug_line_end
                0x00000000        0x0 /home/omn/ti/gcc/bin/../lib/gcc/msp430-elf/4.9.1/../../../../msp430-elf/lib/430/libc.a(lib_a-memmove.o)

.debug_line.text.__divdi3
                0x00000000       0xe9
 .debug_line.text.__divdi3
                0x00000000       0xe9 /home/omn/ti/gcc/bin/../lib/gcc/msp430-elf/4.9.1/430/libgcc.a(_divdi3.o)

.debug_line.text.udivmodsi4
                0x00000000       0x72
 .debug_line.text.udivmodsi4
                0x00000000       0x72 /home/omn/ti/gcc/bin/../lib/gcc/msp430-elf/4.9.1/430/libgcc.a(lib2divSI.o)

.debug_line.text.__divsi3
                0x00000000       0x56
 .debug_line.text.__divsi3
                0x00000000       0x56 /home/omn/ti/gcc/bin/../lib/gcc/msp430-elf/4.9.1/430/libgcc.a(lib2divSI.o)

.debug_line.text.__modsi3
                0x00000000       0x3f
 .debug_line.text.__modsi3
                0x00000000       0x3f /home/omn/ti/gcc/bin/../lib/gcc/msp430-elf/4.9.1/430/libgcc.a(lib2divSI.o)

.debug_line.text.__udivsi3
                0x00000000       0x1b
 .debug_line.text.__udivsi3
                0x00000000       0x1b /home/omn/ti/gcc/bin/../lib/gcc/msp430-elf/4.9.1/430/libgcc.a(lib2divSI.o)

.debug_line.text.__umodsi3
                0x00000000       0x1b
 .debug_line.text.__umodsi3
                0x00000000       0x1b /home/omn/ti/gcc/bin/../lib/gcc/msp430-elf/4.9.1/430/libgcc.a(lib2divSI.o)

.debug_line.text.__lshrdi3
                0x00000000       0x51
 .debug_line.text.__lshrdi3
                0x00000000       0x51 /home/omn/ti/gcc/bin/../lib/gcc/msp430-elf/4.9.1/430/libgcc.a(_lshrdi3.o)

.debug_line.text.__ashldi3
                0x00000000       0x51
 .debug_line.text.__ashldi3
                0x00000000       0x51 /home/omn/ti/gcc/bin/../lib/gcc/msp430-elf/4.9.1/430/libgcc.a(_ashldi3.o)

.debug_line.text.__clzdi2
                0x00000000       0x3f
 .debug_line.text.__clzdi2
                0x00000000       0x3f /home/omn/ti/gcc/bin/../lib/gcc/msp430-elf/4.9.1/430/libgcc.a(_clzdi2.o)

.debug_line.text.memset
                0x00000000       0x20
 .debug_line.text.memset
                0x00000000       0x20 /home/omn/ti/gcc/bin/../lib/gcc/msp430-elf/4.9.1/../../../../msp430-elf/lib/430/libc.a(lib_a-memset.o)

.debug_line.text.memmove
                0x00000000       0x3e
 .debug_line.text.memmove
                0x00000000       0x3e /home/omn/ti/gcc/bin/../lib/gcc/msp430-elf/4.9.1/../../../../msp430-elf/lib/430/libc.a(lib_a-memmove.o)
