
EnergyAgent-1Ch.elf:     filformat elf32-msp430


Disassemblering af sektion __interrupt_vector_8:

0000ffee <__interrupt_vector_8>:
    ffee:	ea c2       	interrupt service routine at 0xc2ea

Disassemblering af sektion __interrupt_vector_10:

0000fff2 <__interrupt_vector_10>:
    fff2:	4a b4       	interrupt service routine at 0xb44a

Disassemblering af sektion .text:

00008268 <__crt0_start>:
    8268:	31 40 00 0a 	mov	#2560,	r1	;#0x0a00

0000826c <__crt0_init_bss>:
    826c:	3c 40 1a 02 	mov	#538,	r12	;#0x021a
    8270:	0d 43       	clr	r13		;
    8272:	3e 40 f8 02 	mov	#760,	r14	;#0x02f8
    8276:	b0 12 f0 d4 	call	#54512		;#0xd4f0

0000827a <__crt0_movedata>:
    827a:	3c 40 00 02 	mov	#512,	r12	;#0x0200
    827e:	3d 40 40 d5 	mov	#54592,	r13	;#0xd540
    8282:	0d 9c       	cmp	r12,	r13	;
    8284:	04 24       	jz	$+10     	;abs 0x828e
    8286:	3e 40 1a 00 	mov	#26,	r14	;#0x001a
    828a:	b0 12 ac d4 	call	#54444		;#0xd4ac

0000828e <__crt0_call_init_then_main>:
    828e:	b0 12 24 d5 	call	#54564		;#0xd524
    8292:	0c 43       	clr	r12		;
    8294:	b0 12 46 b6 	call	#46662		;#0xb646

00008298 <_msp430_run_init_array>:
    8298:	34 40 5c 82 	mov	#33372,	r4	;#0x825c
    829c:	35 40 5c 82 	mov	#33372,	r5	;#0x825c
    82a0:	26 43       	mov	#2,	r6	;r3 As==10
    82a2:	30 40 c4 82 	br	#0x82c4		;

000082a6 <_msp430_run_preinit_array>:
    82a6:	34 40 5c 82 	mov	#33372,	r4	;#0x825c
    82aa:	35 40 5c 82 	mov	#33372,	r5	;#0x825c
    82ae:	26 43       	mov	#2,	r6	;r3 As==10
    82b0:	30 40 c4 82 	br	#0x82c4		;

000082b4 <_msp430_run_fini_array>:
    82b4:	34 40 5c 82 	mov	#33372,	r4	;#0x825c
    82b8:	35 40 5c 82 	mov	#33372,	r5	;#0x825c
    82bc:	36 40 fe ff 	mov	#65534,	r6	;#0xfffe
    82c0:	30 40 c4 82 	br	#0x82c4		;

000082c4 <_msp430_run_array>:
    82c4:	05 94       	cmp	r4,	r5	;
    82c6:	05 24       	jz	$+12     	;abs 0x82d2
    82c8:	27 44       	mov	@r4,	r7	;
    82ca:	04 56       	add	r6,	r4	;
    82cc:	a7 12       	call	@r7		;
    82ce:	10 40 f4 ff 	br	0xfff4		;PC rel. 0x82c4

000082d2 <_msp430_run_done>:
    82d2:	30 41       	ret			

000082d4 <deregister_tm_clones>:
    82d4:	3c 40 40 d5 	mov	#54592,	r12	;#0xd540
    82d8:	3c 80 3f d5 	sub	#54591,	r12	;#0xd53f
    82dc:	2d 43       	mov	#2,	r13	;r3 As==10
    82de:	0d 9c       	cmp	r12,	r13	;
    82e0:	07 2c       	jc	$+16     	;abs 0x82f0
    82e2:	3d 40 00 00 	mov	#0,	r13	;
    82e6:	0d 93       	cmp	#0,	r13	;r3 As==00
    82e8:	03 24       	jz	$+8      	;abs 0x82f0
    82ea:	3c 40 40 d5 	mov	#54592,	r12	;#0xd540
    82ee:	8d 12       	call	r13		;
    82f0:	30 41       	ret			

000082f2 <register_tm_clones>:
    82f2:	0a 12       	push	r10		;
    82f4:	3a 40 40 d5 	mov	#54592,	r10	;#0xd540
    82f8:	3a 80 40 d5 	sub	#54592,	r10	;#0xd540
    82fc:	0a 11       	rra	r10		;
    82fe:	0c 4a       	mov	r10,	r12	;
    8300:	b0 12 60 d2 	call	#53856		;#0xd260
    8304:	0c 5a       	add	r10,	r12	;
    8306:	0d 4c       	mov	r12,	r13	;
    8308:	0d 11       	rra	r13		;
    830a:	0d 93       	cmp	#0,	r13	;r3 As==00
    830c:	07 24       	jz	$+16     	;abs 0x831c
    830e:	3e 40 00 00 	mov	#0,	r14	;
    8312:	0e 93       	cmp	#0,	r14	;r3 As==00
    8314:	03 24       	jz	$+8      	;abs 0x831c
    8316:	3c 40 40 d5 	mov	#54592,	r12	;#0xd540
    831a:	8e 12       	call	r14		;
    831c:	3a 41       	pop	r10		;
    831e:	30 41       	ret			

00008320 <__do_global_dtors_aux>:
    8320:	0a 12       	push	r10		;
    8322:	c2 93 1a 02 	cmp.b	#0,	&0x021a	;r3 As==00
    8326:	20 20       	jnz	$+66     	;abs 0x8368
    8328:	1c 42 1c 02 	mov	&0x021c,r12	;0x021c
    832c:	3a 40 66 82 	mov	#33382,	r10	;#0x8266
    8330:	3a 80 64 82 	sub	#33380,	r10	;#0x8264
    8334:	0a 11       	rra	r10		;
    8336:	3a 53       	add	#-1,	r10	;r3 As==11
    8338:	0c 9a       	cmp	r10,	r12	;
    833a:	0b 2c       	jc	$+24     	;abs 0x8352
    833c:	1c 53       	inc	r12		;
    833e:	82 4c 1c 02 	mov	r12,	&0x021c	;
    8342:	0c 5c       	rla	r12		;
    8344:	1c 4c 64 82 	mov	-32156(r12),r12	;0xffff8264
    8348:	8c 12       	call	r12		;
    834a:	1c 42 1c 02 	mov	&0x021c,r12	;0x021c
    834e:	0c 9a       	cmp	r10,	r12	;
    8350:	f5 2b       	jnc	$-20     	;abs 0x833c
    8352:	b0 12 d4 82 	call	#33492		;#0x82d4
    8356:	3d 40 00 00 	mov	#0,	r13	;
    835a:	0d 93       	cmp	#0,	r13	;r3 As==00
    835c:	03 24       	jz	$+8      	;abs 0x8364
    835e:	3c 40 58 82 	mov	#33368,	r12	;#0x8258
    8362:	8d 12       	call	r13		;
    8364:	d2 43 1a 02 	mov.b	#1,	&0x021a	;r3 As==01
    8368:	3a 41       	pop	r10		;
    836a:	30 41       	ret			

0000836c <call___do_global_dtors_aux>:
    836c:	30 41       	ret			

0000836e <frame_dummy>:
    836e:	3e 40 00 00 	mov	#0,	r14	;
    8372:	0e 93       	cmp	#0,	r14	;r3 As==00
    8374:	05 24       	jz	$+12     	;abs 0x8380
    8376:	3c 40 58 82 	mov	#33368,	r12	;#0x8258
    837a:	3d 40 1e 02 	mov	#542,	r13	;#0x021e
    837e:	8e 12       	call	r14		;
    8380:	3c 40 00 02 	mov	#512,	r12	;#0x0200
    8384:	8c 93 00 00 	cmp	#0,	0(r12)	;r3 As==00
    8388:	03 20       	jnz	$+8      	;abs 0x8390
    838a:	b0 12 f2 82 	call	#33522		;#0x82f2
    838e:	30 41       	ret			
    8390:	3d 40 00 00 	mov	#0,	r13	;
    8394:	0d 93       	cmp	#0,	r13	;r3 As==00
    8396:	f9 27       	jz	$-12     	;abs 0x838a
    8398:	8d 12       	call	r13		;
    839a:	30 40 8a 83 	br	#0x838a		;

0000839e <call_frame_dummy>:
    839e:	30 41       	ret			

000083a0 <int48_to_64>:
    use where interrupt code could not see a half completed operation.
    \param y The destination 64 bit value, which is zeroed
    \param x A pointer to the source 48 bit value.
 */
static __inline__ int64_t int48_to_64(int16_t x[3])
{
    83a0:	0a 12       	push	r10		;
    83a2:	09 12       	push	r9		;
    83a4:	08 12       	push	r8		;
    83a6:	21 83       	decd	r1		;
    83a8:	0a 4c       	mov	r12,	r10	;
    int64_t y;

    y = x[2];
    83aa:	18 4c 04 00 	mov	4(r12),	r8	;
    83ae:	0c 48       	mov	r8,	r12	;
    83b0:	b0 12 ec d1 	call	#53740		;#0xd1ec
    83b4:	0f 4c       	mov	r12,	r15	;
    y <<= 16;
    83b6:	39 40 14 cd 	mov	#52500,	r9	;#0xcd14
    83ba:	b1 40 10 00 	mov	#16,	0(r1)	;#0x0010
    83be:	00 00 
    83c0:	0c 48       	mov	r8,	r12	;
    83c2:	0d 4f       	mov	r15,	r13	;
    83c4:	0e 4f       	mov	r15,	r14	;
    83c6:	89 12       	call	r9		;
    y |= (uint16_t) x[1];
    83c8:	1c da 02 00 	bis	2(r10),	r12	;
    y <<= 16;
    83cc:	89 12       	call	r9		;
    y |= (uint16_t) x[0];
    return  y;
}
    83ce:	2c da       	bis	@r10,	r12	;
    83d0:	21 53       	incd	r1		;
    83d2:	30 40 70 d1 	br	#0xd170		;

000083d6 <int64_to_48>:
    use where interrupt code could not see a half completed operation.
    \param y A pointer to the destination 48 bit value.
    \param x The source 64 bit value, which is zeroed
 */
static __inline__ void int64_to_48(int16_t y[3], int64_t x)
{
    83d6:	0a 12       	push	r10		;
    83d8:	09 12       	push	r9		;
    83da:	08 12       	push	r8		;
    83dc:	07 12       	push	r7		;
    83de:	06 12       	push	r6		;
    83e0:	05 12       	push	r5		;
    83e2:	21 83       	decd	r1		;
    83e4:	0a 4c       	mov	r12,	r10	;
    83e6:	19 41 10 00 	mov	16(r1),	r9	;0x00010
    83ea:	15 41 12 00 	mov	18(r1),	r5	;0x00012
    83ee:	16 41 14 00 	mov	20(r1),	r6	;0x00014
    83f2:	17 41 16 00 	mov	22(r1),	r7	;0x00016
    y[2] = x >> 32;
    83f6:	38 40 90 cd 	mov	#52624,	r8	;#0xcd90
    83fa:	b1 40 20 00 	mov	#32,	0(r1)	;#0x0020
    83fe:	00 00 
    8400:	0c 49       	mov	r9,	r12	;
    8402:	0d 45       	mov	r5,	r13	;
    8404:	0e 46       	mov	r6,	r14	;
    8406:	0f 47       	mov	r7,	r15	;
    8408:	88 12       	call	r8		;
    840a:	8a 4c 04 00 	mov	r12,	4(r10)	;
    y[1] = x >> 16;
    840e:	b1 40 10 00 	mov	#16,	0(r1)	;#0x0010
    8412:	00 00 
    8414:	0c 49       	mov	r9,	r12	;
    8416:	0d 45       	mov	r5,	r13	;
    8418:	0e 46       	mov	r6,	r14	;
    841a:	0f 47       	mov	r7,	r15	;
    841c:	88 12       	call	r8		;
    841e:	8a 4c 02 00 	mov	r12,	2(r10)	;
    y[0] = x;
    8422:	8a 49 00 00 	mov	r9,	0(r10)	;
}
    8426:	21 53       	incd	r1		;
    8428:	30 40 6a d1 	br	#0xd16a		;

0000842c <transfer48>:
    \param y A pointer to the destination 48 bit value.
    \param x A pointer to the source 48 bit value, which is zeroed
 */
static __inline__ void transfer48(int16_t y[3], int16_t x[3])
{
    y[2] = x[2];
    842c:	9c 4d 04 00 	mov	4(r13),	4(r12)	;
    8430:	04 00 
    y[1] = x[1];
    8432:	9c 4d 02 00 	mov	2(r13),	2(r12)	;
    8436:	02 00 
    y[0] = x[0];
    8438:	ac 4d 00 00 	mov	@r13,	0(r12)	;
    x[0] =
    x[1] =
    x[2] = 0;
    843c:	8d 43 04 00 	mov	#0,	4(r13)	;r3 As==00
{
    y[2] = x[2];
    y[1] = x[1];
    y[0] = x[0];
    x[0] =
    x[1] =
    8440:	8d 43 02 00 	mov	#0,	2(r13)	;r3 As==00
static __inline__ void transfer48(int16_t y[3], int16_t x[3])
{
    y[2] = x[2];
    y[1] = x[1];
    y[0] = x[0];
    x[0] =
    8444:	8d 43 00 00 	mov	#0,	0(r13)	;r3 As==00
    x[1] =
    x[2] = 0;
}
    8448:	30 41       	ret			

0000844a <assign48>:
    \param y A pointer to the destination 48 bit value.
    \param x A pointer to the source 48 bit value.
 */
static __inline__ void assign48(int16_t y[3], const int16_t x[3])
{
    y[2] = x[2];
    844a:	9c 4d 04 00 	mov	4(r13),	4(r12)	;
    844e:	04 00 
    y[1] = x[1];
    8450:	9c 4d 02 00 	mov	2(r13),	2(r12)	;
    8454:	02 00 
    y[0] = x[0];
    8456:	ac 4d 00 00 	mov	@r13,	0(r12)	;
}
    845a:	30 41       	ret			

0000845c <clear48>:
    interrupts are already disabled.
    \param z A pointer to the 48 bit accumulator.
 */
static __inline__ void clear48(int16_t z[3])
{
    z[2] = 0;
    845c:	8c 43 04 00 	mov	#0,	4(r12)	;r3 As==00
    z[1] = 0;
    8460:	8c 43 02 00 	mov	#0,	2(r12)	;r3 As==00
    z[0] = 0;
    8464:	8c 43 00 00 	mov	#0,	0(r12)	;r3 As==00
}
    8468:	30 41       	ret			

0000846a <accum48>:
    /* Accumulate a 32 bit integer value into a 48 bit one represented
       by a 3 element int16_t array */
#if defined(__MSP430__)  &&  defined(__GNUC__)
    int16_t y_ex;

    __asm__ __volatile__ (
    846a:	0f 43       	clr	r15		;
    846c:	0f 4e       	mov	r14,	r15	;
    846e:	0f 5f       	rla	r15		;
    8470:	0f 7f       	subc	r15,	r15	;
    8472:	3f e3       	inv	r15		;
    8474:	8c 5d 00 00 	add	r13,	0(r12)	;
    8478:	8c 6e 02 00 	addc	r14,	2(r12)	;
    847c:	8c 6f 04 00 	addc	r15,	4(r12)	;
    acc >>= 16;
    x[1] = acc;
    acc >>= 16;
    x[2] = acc;
#endif
}
    8480:	30 41       	ret			

00008482 <brief_pause>:
#endif

static void __inline__ brief_pause(unsigned int n)
{
    while (n > 0)
    8482:	0c 93       	cmp	#0,	r12	;r3 As==00
    8484:	04 24       	jz	$+10     	;abs 0x848e
    {
        n--;
    8486:	3c 53       	add	#-1,	r12	;r3 As==11
        __no_operation();
    8488:	03 43       	nop			
}
#endif

static void __inline__ brief_pause(unsigned int n)
{
    while (n > 0)
    848a:	0c 93       	cmp	#0,	r12	;r3 As==00
    848c:	fc 23       	jnz	$-6      	;abs 0x8486
    {
        n--;
        __no_operation();
    }
}
    848e:	30 41       	ret			

00008490 <restart_watchdog>:

static void __inline__ restart_watchdog(void)
{
#if defined(__MSP430__)
    WDTCTL = (WDTCTL & 0xFF) | WDTPW | WDTCNTCL;
    8490:	1c 42 20 01 	mov	&0x0120,r12	;0x0120
    8494:	3c f0 ff 00 	and	#255,	r12	;#0x00ff
    8498:	3c d0 08 5a 	bis	#23048,	r12	;#0x5a08
    849c:	82 4c 20 01 	mov	r12,	&0x0120	;
#endif
}
    84a0:	30 41       	ret			

000084a2 <dc_filter>:
{
#if defined(__GNUC__)  &&  defined(__MSP430__)
    int32_t z;

    z = 0x12345678;
    __asm__ (
    84a2:	3e 40 78 56 	mov	#22136,	r14	;#0x5678
    84a6:	3f 40 34 12 	mov	#4660,	r15	;#0x1234
    84aa:	0f 4d       	mov	r13,	r15	;
    84ac:	0e 43       	clr	r14		;
    84ae:	2e 8c       	sub	@r12,	r14	;
    84b0:	1f 7c 02 00 	subc	2(r12),	r15	;
    84b4:	0e 5e       	rla	r14		;
    84b6:	0f 6f       	rlc	r15		;
    84b8:	06 2c       	jc	$+14     	;abs 0x84c6
    84ba:	0e 6e       	rlc	r14		;
    84bc:	0f 6f       	rlc	r15		;
    84be:	0e 6e       	rlc	r14		;
    84c0:	3e f0 03 00 	and	#3,	r14	;
    84c4:	05 3c       	jmp	$+12     	;abs 0x84d0
    84c6:	0e 6e       	rlc	r14		;
    84c8:	0f 6f       	rlc	r15		;
    84ca:	0e 6e       	rlc	r14		;
    84cc:	3e d0 fc ff 	bis	#65532,	r14	;#0xfffc
    84d0:	2f 5c       	add	@r12,	r15	;
    84d2:	1e 6c 02 00 	addc	2(r12),	r14	;
    84d6:	8c 4f 00 00 	mov	r15,	0(r12)	;
    84da:	8c 4e 02 00 	mov	r14,	2(r12)	;
    84de:	0d 8e       	sub	r14,	r13	;
#else
    *p += ((((int32_t) x << 16) - *p) >> 14);
    x -= (*p >> 16);
    return x;
#endif
}
    84e0:	0c 4d       	mov	r13,	r12	;
    84e2:	30 41       	ret			

000084e4 <dc_filter_no_update>:

int16_t dc_filter_no_update(const int32_t *p, int16_t x)
{
    84e4:	0a 12       	push	r10		;
    84e6:	0a 4d       	mov	r13,	r10	;
    return x - (*p >> 16);
    84e8:	1d 4c 02 00 	mov	2(r12),	r13	;
    84ec:	2c 4c       	mov	@r12,	r12	;
    84ee:	3e 40 10 00 	mov	#16,	r14	;#0x0010
    84f2:	b0 12 5a d2 	call	#53850		;#0xd25a
}
    84f6:	0a 8c       	sub	r12,	r10	;
    84f8:	0c 4a       	mov	r10,	r12	;
    84fa:	3a 41       	pop	r10		;
    84fc:	30 41       	ret			

000084fe <dc_filter_init>:

void dc_filter_init(int32_t *p, int16_t x)
{
    84fe:	0a 12       	push	r10		;
    8500:	0a 4c       	mov	r12,	r10	;
    *p = (int32_t) x << 16;
    8502:	0c 4d       	mov	r13,	r12	;
    8504:	3c b0 00 80 	bit	#32768,	r12	;#0x8000
    8508:	0d 7d       	subc	r13,	r13	;
    850a:	3d e3       	inv	r13		;
    850c:	3e 40 10 00 	mov	#16,	r14	;#0x0010
    8510:	b0 12 e6 d1 	call	#53734		;#0xd1e6
    8514:	8a 4c 00 00 	mov	r12,	0(r10)	;
    8518:	8a 4d 02 00 	mov	r13,	2(r10)	;
}
    851c:	3a 41       	pop	r10		;
    851e:	30 41       	ret			

00008520 <dc_filter16_estimate>:

int32_t dc_filter16_estimate(const int32_t *p)
{
    return *p >> 8;
    8520:	1d 4c 02 00 	mov	2(r12),	r13	;
    8524:	2c 4c       	mov	@r12,	r12	;
    8526:	b0 12 32 d2 	call	#53810		;#0xd232
}
    852a:	30 41       	ret			

0000852c <int48_to_64>:
    use where interrupt code could not see a half completed operation.
    \param y The destination 64 bit value, which is zeroed
    \param x A pointer to the source 48 bit value.
 */
static __inline__ int64_t int48_to_64(int16_t x[3])
{
    852c:	0a 12       	push	r10		;
    852e:	09 12       	push	r9		;
    8530:	08 12       	push	r8		;
    8532:	21 83       	decd	r1		;
    8534:	0a 4c       	mov	r12,	r10	;
    int64_t y;

    y = x[2];
    8536:	18 4c 04 00 	mov	4(r12),	r8	;
    853a:	0c 48       	mov	r8,	r12	;
    853c:	b0 12 ec d1 	call	#53740		;#0xd1ec
    8540:	0f 4c       	mov	r12,	r15	;
    y <<= 16;
    8542:	39 40 14 cd 	mov	#52500,	r9	;#0xcd14
    8546:	b1 40 10 00 	mov	#16,	0(r1)	;#0x0010
    854a:	00 00 
    854c:	0c 48       	mov	r8,	r12	;
    854e:	0d 4f       	mov	r15,	r13	;
    8550:	0e 4f       	mov	r15,	r14	;
    8552:	89 12       	call	r9		;
    y |= (uint16_t) x[1];
    8554:	1c da 02 00 	bis	2(r10),	r12	;
    y <<= 16;
    8558:	89 12       	call	r9		;
    y |= (uint16_t) x[0];
    return  y;
}
    855a:	2c da       	bis	@r10,	r12	;
    855c:	21 53       	incd	r1		;
    855e:	30 40 70 d1 	br	#0xd170		;

00008562 <int64_to_48>:
    use where interrupt code could not see a half completed operation.
    \param y A pointer to the destination 48 bit value.
    \param x The source 64 bit value, which is zeroed
 */
static __inline__ void int64_to_48(int16_t y[3], int64_t x)
{
    8562:	0a 12       	push	r10		;
    8564:	09 12       	push	r9		;
    8566:	08 12       	push	r8		;
    8568:	07 12       	push	r7		;
    856a:	06 12       	push	r6		;
    856c:	05 12       	push	r5		;
    856e:	21 83       	decd	r1		;
    8570:	0a 4c       	mov	r12,	r10	;
    8572:	19 41 10 00 	mov	16(r1),	r9	;0x00010
    8576:	15 41 12 00 	mov	18(r1),	r5	;0x00012
    857a:	16 41 14 00 	mov	20(r1),	r6	;0x00014
    857e:	17 41 16 00 	mov	22(r1),	r7	;0x00016
    y[2] = x >> 32;
    8582:	38 40 90 cd 	mov	#52624,	r8	;#0xcd90
    8586:	b1 40 20 00 	mov	#32,	0(r1)	;#0x0020
    858a:	00 00 
    858c:	0c 49       	mov	r9,	r12	;
    858e:	0d 45       	mov	r5,	r13	;
    8590:	0e 46       	mov	r6,	r14	;
    8592:	0f 47       	mov	r7,	r15	;
    8594:	88 12       	call	r8		;
    8596:	8a 4c 04 00 	mov	r12,	4(r10)	;
    y[1] = x >> 16;
    859a:	b1 40 10 00 	mov	#16,	0(r1)	;#0x0010
    859e:	00 00 
    85a0:	0c 49       	mov	r9,	r12	;
    85a2:	0d 45       	mov	r5,	r13	;
    85a4:	0e 46       	mov	r6,	r14	;
    85a6:	0f 47       	mov	r7,	r15	;
    85a8:	88 12       	call	r8		;
    85aa:	8a 4c 02 00 	mov	r12,	2(r10)	;
    y[0] = x;
    85ae:	8a 49 00 00 	mov	r9,	0(r10)	;
}
    85b2:	21 53       	incd	r1		;
    85b4:	30 40 6a d1 	br	#0xd16a		;

000085b8 <transfer48>:
    \param y A pointer to the destination 48 bit value.
    \param x A pointer to the source 48 bit value, which is zeroed
 */
static __inline__ void transfer48(int16_t y[3], int16_t x[3])
{
    y[2] = x[2];
    85b8:	9c 4d 04 00 	mov	4(r13),	4(r12)	;
    85bc:	04 00 
    y[1] = x[1];
    85be:	9c 4d 02 00 	mov	2(r13),	2(r12)	;
    85c2:	02 00 
    y[0] = x[0];
    85c4:	ac 4d 00 00 	mov	@r13,	0(r12)	;
    x[0] =
    x[1] =
    x[2] = 0;
    85c8:	8d 43 04 00 	mov	#0,	4(r13)	;r3 As==00
{
    y[2] = x[2];
    y[1] = x[1];
    y[0] = x[0];
    x[0] =
    x[1] =
    85cc:	8d 43 02 00 	mov	#0,	2(r13)	;r3 As==00
static __inline__ void transfer48(int16_t y[3], int16_t x[3])
{
    y[2] = x[2];
    y[1] = x[1];
    y[0] = x[0];
    x[0] =
    85d0:	8d 43 00 00 	mov	#0,	0(r13)	;r3 As==00
    x[1] =
    x[2] = 0;
}
    85d4:	30 41       	ret			

000085d6 <assign48>:
    \param y A pointer to the destination 48 bit value.
    \param x A pointer to the source 48 bit value.
 */
static __inline__ void assign48(int16_t y[3], const int16_t x[3])
{
    y[2] = x[2];
    85d6:	9c 4d 04 00 	mov	4(r13),	4(r12)	;
    85da:	04 00 
    y[1] = x[1];
    85dc:	9c 4d 02 00 	mov	2(r13),	2(r12)	;
    85e0:	02 00 
    y[0] = x[0];
    85e2:	ac 4d 00 00 	mov	@r13,	0(r12)	;
}
    85e6:	30 41       	ret			

000085e8 <clear48>:
    interrupts are already disabled.
    \param z A pointer to the 48 bit accumulator.
 */
static __inline__ void clear48(int16_t z[3])
{
    z[2] = 0;
    85e8:	8c 43 04 00 	mov	#0,	4(r12)	;r3 As==00
    z[1] = 0;
    85ec:	8c 43 02 00 	mov	#0,	2(r12)	;r3 As==00
    z[0] = 0;
    85f0:	8c 43 00 00 	mov	#0,	0(r12)	;r3 As==00
}
    85f4:	30 41       	ret			

000085f6 <accum48>:
    /* Accumulate a 32 bit integer value into a 48 bit one represented
       by a 3 element int16_t array */
#if defined(__MSP430__)  &&  defined(__GNUC__)
    int16_t y_ex;

    __asm__ __volatile__ (
    85f6:	0f 43       	clr	r15		;
    85f8:	0f 4e       	mov	r14,	r15	;
    85fa:	0f 5f       	rla	r15		;
    85fc:	0f 7f       	subc	r15,	r15	;
    85fe:	3f e3       	inv	r15		;
    8600:	8c 5d 00 00 	add	r13,	0(r12)	;
    8604:	8c 6e 02 00 	addc	r14,	2(r12)	;
    8608:	8c 6f 04 00 	addc	r15,	4(r12)	;
    acc >>= 16;
    x[1] = acc;
    acc >>= 16;
    x[2] = acc;
#endif
}
    860c:	30 41       	ret			

0000860e <brief_pause>:
#endif

static void __inline__ brief_pause(unsigned int n)
{
    while (n > 0)
    860e:	0c 93       	cmp	#0,	r12	;r3 As==00
    8610:	04 24       	jz	$+10     	;abs 0x861a
    {
        n--;
    8612:	3c 53       	add	#-1,	r12	;r3 As==11
        __no_operation();
    8614:	03 43       	nop			
}
#endif

static void __inline__ brief_pause(unsigned int n)
{
    while (n > 0)
    8616:	0c 93       	cmp	#0,	r12	;r3 As==00
    8618:	fc 23       	jnz	$-6      	;abs 0x8612
    {
        n--;
        __no_operation();
    }
}
    861a:	30 41       	ret			

0000861c <restart_watchdog>:

static void __inline__ restart_watchdog(void)
{
#if defined(__MSP430__)
    WDTCTL = (WDTCTL & 0xFF) | WDTPW | WDTCNTCL;
    861c:	1c 42 20 01 	mov	&0x0120,r12	;0x0120
    8620:	3c f0 ff 00 	and	#255,	r12	;#0x00ff
    8624:	3c d0 08 5a 	bis	#23048,	r12	;#0x5a08
    8628:	82 4c 20 01 	mov	r12,	&0x0120	;
#endif
}
    862c:	30 41       	ret			

0000862e <dc_filter24>:
#include <msp430.h>
#endif
#include "emeter-toolkit.h"

int32_t dc_filter24(int16_t p[3], int32_t x)
{
    862e:	0a 12       	push	r10		;
    8630:	09 12       	push	r9		;
    8632:	08 12       	push	r8		;
    8634:	07 12       	push	r7		;
    8636:	06 12       	push	r6		;
    8638:	05 12       	push	r5		;
    863a:	04 12       	push	r4		;
    863c:	31 80 0e 00 	sub	#14,	r1	;#0x000e
    8640:	07 4c       	mov	r12,	r7	;
    8642:	81 4d 0a 00 	mov	r13,	10(r1)	; 0x000a
    8646:	81 4e 0c 00 	mov	r14,	12(r1)	; 0x000c
    int64_t tmp;

    tmp = p[2];
    864a:	19 4c 04 00 	mov	4(r12),	r9	;
    864e:	0c 49       	mov	r9,	r12	;
    8650:	b0 12 ec d1 	call	#53740		;#0xd1ec
    8654:	0f 4c       	mov	r12,	r15	;
    tmp = tmp << 16;
    8656:	3a 40 14 cd 	mov	#52500,	r10	;#0xcd14
    865a:	b1 40 10 00 	mov	#16,	0(r1)	;#0x0010
    865e:	00 00 
    8660:	0c 49       	mov	r9,	r12	;
    8662:	0d 4f       	mov	r15,	r13	;
    8664:	0e 4f       	mov	r15,	r14	;
    8666:	8a 12       	call	r10		;
    8668:	04 4c       	mov	r12,	r4	;
    866a:	05 4d       	mov	r13,	r5	;
    866c:	06 4e       	mov	r14,	r6	;
    866e:	08 4f       	mov	r15,	r8	;
    tmp |= p[1];
    8670:	19 47 02 00 	mov	2(r7),	r9	;
    8674:	0c 49       	mov	r9,	r12	;
    8676:	b0 12 ec d1 	call	#53740		;#0xd1ec
    867a:	0f 4c       	mov	r12,	r15	;
    tmp = tmp << 16;
    867c:	0c 44       	mov	r4,	r12	;
    867e:	0c d9       	bis	r9,	r12	;
    8680:	0d 45       	mov	r5,	r13	;
    8682:	0d df       	bis	r15,	r13	;
    8684:	0e 46       	mov	r6,	r14	;
    8686:	0e df       	bis	r15,	r14	;
    8688:	0f d8       	bis	r8,	r15	;
    868a:	8a 12       	call	r10		;
    868c:	06 4c       	mov	r12,	r6	;
    868e:	04 4d       	mov	r13,	r4	;
    8690:	05 4e       	mov	r14,	r5	;
    8692:	09 4f       	mov	r15,	r9	;
    tmp |= p[0];
    8694:	2a 47       	mov	@r7,	r10	;
    8696:	0c 4a       	mov	r10,	r12	;
    8698:	b0 12 ec d1 	call	#53740		;#0xd1ec
    869c:	0a d6       	bis	r6,	r10	;
    869e:	04 dc       	bis	r12,	r4	;
    86a0:	05 dc       	bis	r12,	r5	;
    86a2:	09 dc       	bis	r12,	r9	;
    86a4:	81 49 02 00 	mov	r9,	2(r1)	;
    tmp += ((((int32_t) x << 16) - tmp) >> 14);
    86a8:	1c 41 0a 00 	mov	10(r1),	r12	;0x0000a
    86ac:	1d 41 0c 00 	mov	12(r1),	r13	;0x0000c
    86b0:	3e 40 10 00 	mov	#16,	r14	;#0x0010
    86b4:	b0 12 e6 d1 	call	#53734		;#0xd1e6
    86b8:	09 4d       	mov	r13,	r9	;
    86ba:	08 4c       	mov	r12,	r8	;
    86bc:	06 4d       	mov	r13,	r6	;
    86be:	0c 4d       	mov	r13,	r12	;
    86c0:	b0 12 ec d1 	call	#53740		;#0xd1ec
    86c4:	0b 4c       	mov	r12,	r11	;
    86c6:	0c 48       	mov	r8,	r12	;
    86c8:	0c 8a       	sub	r10,	r12	;
    86ca:	1e 43       	mov	#1,	r14	;r3 As==01
    86cc:	08 9c       	cmp	r12,	r8	;
    86ce:	01 28       	jnc	$+4      	;abs 0x86d2
    86d0:	0e 43       	clr	r14		;
    86d2:	09 84       	sub	r4,	r9	;
    86d4:	18 43       	mov	#1,	r8	;r3 As==01
    86d6:	06 99       	cmp	r9,	r6	;
    86d8:	01 28       	jnc	$+4      	;abs 0x86dc
    86da:	08 43       	clr	r8		;
    86dc:	0d 49       	mov	r9,	r13	;
    86de:	0d 8e       	sub	r14,	r13	;
    86e0:	1e 43       	mov	#1,	r14	;r3 As==01
    86e2:	09 9d       	cmp	r13,	r9	;
    86e4:	01 28       	jnc	$+4      	;abs 0x86e8
    86e6:	0e 43       	clr	r14		;
    86e8:	08 de       	bis	r14,	r8	;
    86ea:	09 4b       	mov	r11,	r9	;
    86ec:	09 85       	sub	r5,	r9	;
    86ee:	1f 43       	mov	#1,	r15	;r3 As==01
    86f0:	0b 99       	cmp	r9,	r11	;
    86f2:	01 28       	jnc	$+4      	;abs 0x86f6
    86f4:	0f 43       	clr	r15		;
    86f6:	0e 49       	mov	r9,	r14	;
    86f8:	0e 88       	sub	r8,	r14	;
    86fa:	18 43       	mov	#1,	r8	;r3 As==01
    86fc:	09 9e       	cmp	r14,	r9	;
    86fe:	01 28       	jnc	$+4      	;abs 0x8702
    8700:	08 43       	clr	r8		;
    8702:	0f d8       	bis	r8,	r15	;
    8704:	1b 81 02 00 	sub	2(r1),	r11	;
    8708:	b1 40 0e 00 	mov	#14,	0(r1)	;#0x000e
    870c:	00 00 
    870e:	0b 8f       	sub	r15,	r11	;
    8710:	0f 4b       	mov	r11,	r15	;
    8712:	b0 12 90 cd 	call	#52624		;#0xcd90
    8716:	08 4d       	mov	r13,	r8	;
    8718:	0b 4e       	mov	r14,	r11	;
    871a:	0a 5c       	add	r12,	r10	;
    871c:	16 43       	mov	#1,	r6	;r3 As==01
    871e:	0a 9c       	cmp	r12,	r10	;
    8720:	01 28       	jnc	$+4      	;abs 0x8724
    8722:	06 43       	clr	r6		;
    8724:	0d 54       	add	r4,	r13	;
    8726:	19 43       	mov	#1,	r9	;r3 As==01
    8728:	0d 98       	cmp	r8,	r13	;
    872a:	01 28       	jnc	$+4      	;abs 0x872e
    872c:	09 43       	clr	r9		;
    872e:	06 5d       	add	r13,	r6	;
    8730:	1c 43       	mov	#1,	r12	;r3 As==01
    8732:	06 9d       	cmp	r13,	r6	;
    8734:	01 28       	jnc	$+4      	;abs 0x8738
    8736:	0c 43       	clr	r12		;
    8738:	09 dc       	bis	r12,	r9	;
    873a:	0e 55       	add	r5,	r14	;
    873c:	18 43       	mov	#1,	r8	;r3 As==01
    873e:	0e 9b       	cmp	r11,	r14	;
    8740:	01 28       	jnc	$+4      	;abs 0x8744
    8742:	08 43       	clr	r8		;
    8744:	09 5e       	add	r14,	r9	;
    8746:	1c 43       	mov	#1,	r12	;r3 As==01
    8748:	09 9e       	cmp	r14,	r9	;
    874a:	01 28       	jnc	$+4      	;abs 0x874e
    874c:	0c 43       	clr	r12		;
    874e:	08 dc       	bis	r12,	r8	;
    8750:	1f 51 02 00 	add	2(r1),	r15	;
    8754:	08 5f       	add	r15,	r8	;
    x -= (tmp >> 16);
    8756:	35 40 90 cd 	mov	#52624,	r5	;#0xcd90
    875a:	b1 40 10 00 	mov	#16,	0(r1)	;#0x0010
    875e:	00 00 
    8760:	0c 4a       	mov	r10,	r12	;
    8762:	0d 46       	mov	r6,	r13	;
    8764:	0e 49       	mov	r9,	r14	;
    8766:	0f 48       	mov	r8,	r15	;
    8768:	85 12       	call	r5		;
    876a:	81 4c 02 00 	mov	r12,	2(r1)	;
    876e:	81 4d 04 00 	mov	r13,	4(r1)	;
    8772:	81 4e 06 00 	mov	r14,	6(r1)	;
    8776:	81 4f 08 00 	mov	r15,	8(r1)	;
    877a:	1c 41 0a 00 	mov	10(r1),	r12	;0x0000a
    877e:	1d 41 0c 00 	mov	12(r1),	r13	;0x0000c
    8782:	1c 81 02 00 	sub	2(r1),	r12	;
    8786:	1d 71 04 00 	subc	4(r1),	r13	;
    878a:	81 4c 0a 00 	mov	r12,	10(r1)	; 0x000a
    878e:	81 4d 0c 00 	mov	r13,	12(r1)	; 0x000c
    p[2] = (tmp >> 32) & 0xFFFF;
    8792:	b1 40 20 00 	mov	#32,	0(r1)	;#0x0020
    8796:	00 00 
    8798:	0c 4a       	mov	r10,	r12	;
    879a:	0d 46       	mov	r6,	r13	;
    879c:	0e 49       	mov	r9,	r14	;
    879e:	0f 48       	mov	r8,	r15	;
    87a0:	85 12       	call	r5		;
    87a2:	87 4c 04 00 	mov	r12,	4(r7)	;
    p[1] = (tmp >> 16) & 0xFFFF;
    87a6:	97 41 02 00 	mov	2(r1),	2(r7)	;
    87aa:	02 00 
    p[0] = tmp & 0xFFFF;
    87ac:	87 4a 00 00 	mov	r10,	0(r7)	;
    return x;
}
    87b0:	1c 41 0a 00 	mov	10(r1),	r12	;0x0000a
    87b4:	1d 41 0c 00 	mov	12(r1),	r13	;0x0000c
    87b8:	31 50 0e 00 	add	#14,	r1	;#0x000e
    87bc:	30 40 68 d1 	br	#0xd168		;

000087c0 <dc_filter24_no_update>:

int32_t dc_filter24_no_update(const int16_t p[3], int32_t x)
{
    87c0:	0a 12       	push	r10		;
    87c2:	09 12       	push	r9		;
    87c4:	08 12       	push	r8		;
    87c6:	07 12       	push	r7		;
    87c8:	06 12       	push	r6		;
    87ca:	05 12       	push	r5		;
    87cc:	04 12       	push	r4		;
    87ce:	21 83       	decd	r1		;
    87d0:	0a 4c       	mov	r12,	r10	;
    87d2:	08 4d       	mov	r13,	r8	;
    87d4:	09 4e       	mov	r14,	r9	;
    int64_t tmp;

    tmp = p[2];
    87d6:	17 4c 04 00 	mov	4(r12),	r7	;
    87da:	0c 47       	mov	r7,	r12	;
    87dc:	b0 12 ec d1 	call	#53740		;#0xd1ec
    87e0:	0f 4c       	mov	r12,	r15	;
    tmp = tmp << 16;
    87e2:	b1 40 10 00 	mov	#16,	0(r1)	;#0x0010
    87e6:	00 00 
    87e8:	0c 47       	mov	r7,	r12	;
    87ea:	0d 4f       	mov	r15,	r13	;
    87ec:	0e 4f       	mov	r15,	r14	;
    87ee:	b0 12 14 cd 	call	#52500		;#0xcd14
    87f2:	04 4c       	mov	r12,	r4	;
    87f4:	05 4d       	mov	r13,	r5	;
    87f6:	06 4e       	mov	r14,	r6	;
    87f8:	07 4f       	mov	r15,	r7	;
    tmp |= p[1];
    87fa:	1a 4a 02 00 	mov	2(r10),	r10	;
    87fe:	0c 4a       	mov	r10,	r12	;
    8800:	b0 12 ec d1 	call	#53740		;#0xd1ec
    8804:	0f 4c       	mov	r12,	r15	;
    8806:	0b 44       	mov	r4,	r11	;
    8808:	0b da       	bis	r10,	r11	;
    880a:	0c 45       	mov	r5,	r12	;
    880c:	0c df       	bis	r15,	r12	;
    x -= tmp;
    880e:	08 8b       	sub	r11,	r8	;
    8810:	09 7c       	subc	r12,	r9	;
    return x;
}
    8812:	0c 48       	mov	r8,	r12	;
    8814:	0d 49       	mov	r9,	r13	;
    8816:	21 53       	incd	r1		;
    8818:	30 40 68 d1 	br	#0xd168		;

0000881c <dc_filter24_init>:

void dc_filter24_init(int16_t p[3], int32_t x)
{
    881c:	0a 12       	push	r10		;
    881e:	09 12       	push	r9		;
    8820:	08 12       	push	r8		;
    8822:	07 12       	push	r7		;
    8824:	06 12       	push	r6		;
    8826:	21 83       	decd	r1		;
    8828:	09 4c       	mov	r12,	r9	;
#if !defined(__MSP430__)
    int64_t tmp;
#endif
    int64_t tmp;	//omn

    tmp = x << 16;
    882a:	0c 4d       	mov	r13,	r12	;
    882c:	0d 4e       	mov	r14,	r13	;
    882e:	3e 40 10 00 	mov	#16,	r14	;#0x0010
    8832:	b0 12 e6 d1 	call	#53734		;#0xd1e6
    8836:	08 4d       	mov	r13,	r8	;
    8838:	07 4c       	mov	r12,	r7	;
    883a:	0c 4d       	mov	r13,	r12	;
    883c:	b0 12 ec d1 	call	#53740		;#0xd1ec
    8840:	0a 4c       	mov	r12,	r10	;
    p[2] = (tmp >> 32) & 0xFFFF;
    8842:	36 40 90 cd 	mov	#52624,	r6	;#0xcd90
    8846:	b1 40 20 00 	mov	#32,	0(r1)	;#0x0020
    884a:	00 00 
    884c:	0c 47       	mov	r7,	r12	;
    884e:	0d 48       	mov	r8,	r13	;
    8850:	0e 4a       	mov	r10,	r14	;
    8852:	0f 4a       	mov	r10,	r15	;
    8854:	86 12       	call	r6		;
    8856:	89 4c 04 00 	mov	r12,	4(r9)	;
    p[1] = (tmp >> 16) & 0xFFFF;
    885a:	b1 40 10 00 	mov	#16,	0(r1)	;#0x0010
    885e:	00 00 
    8860:	0c 47       	mov	r7,	r12	;
    8862:	0d 48       	mov	r8,	r13	;
    8864:	0e 4a       	mov	r10,	r14	;
    8866:	0f 4a       	mov	r10,	r15	;
    8868:	86 12       	call	r6		;
    886a:	89 4c 02 00 	mov	r12,	2(r9)	;
    p[0] = tmp & 0xFFFF;
    886e:	89 43 00 00 	mov	#0,	0(r9)	;r3 As==00
}
    8872:	21 53       	incd	r1		;
    8874:	30 40 6c d1 	br	#0xd16c		;

00008878 <dc_filter24_estimate>:

int32_t dc_filter24_estimate(const int16_t p[3])
{
    8878:	0a 12       	push	r10		;
    887a:	09 12       	push	r9		;
    887c:	08 12       	push	r8		;
    887e:	07 12       	push	r7		;
    8880:	06 12       	push	r6		;
    8882:	05 12       	push	r5		;
    8884:	04 12       	push	r4		;
    8886:	21 83       	decd	r1		;
    8888:	0a 4c       	mov	r12,	r10	;
    int64_t tmp;

    tmp = p[2];
    888a:	18 4c 04 00 	mov	4(r12),	r8	;
    888e:	0c 48       	mov	r8,	r12	;
    8890:	b0 12 ec d1 	call	#53740		;#0xd1ec
    8894:	0f 4c       	mov	r12,	r15	;
    tmp = tmp << 16;
    8896:	39 40 14 cd 	mov	#52500,	r9	;#0xcd14
    889a:	b1 40 10 00 	mov	#16,	0(r1)	;#0x0010
    889e:	00 00 
    88a0:	0c 48       	mov	r8,	r12	;
    88a2:	0d 4f       	mov	r15,	r13	;
    88a4:	0e 4f       	mov	r15,	r14	;
    88a6:	89 12       	call	r9		;
    88a8:	04 4c       	mov	r12,	r4	;
    88aa:	05 4d       	mov	r13,	r5	;
    88ac:	06 4e       	mov	r14,	r6	;
    88ae:	07 4f       	mov	r15,	r7	;
    tmp |= p[1];
    88b0:	18 4a 02 00 	mov	2(r10),	r8	;
    88b4:	0c 48       	mov	r8,	r12	;
    88b6:	b0 12 ec d1 	call	#53740		;#0xd1ec
    88ba:	0f 4c       	mov	r12,	r15	;
    tmp = tmp << 16;
    88bc:	0c 44       	mov	r4,	r12	;
    88be:	0c d8       	bis	r8,	r12	;
    88c0:	0d 45       	mov	r5,	r13	;
    88c2:	0d df       	bis	r15,	r13	;
    88c4:	0e 46       	mov	r6,	r14	;
    88c6:	0e df       	bis	r15,	r14	;
    88c8:	0f d7       	bis	r7,	r15	;
    88ca:	89 12       	call	r9		;
    88cc:	06 4c       	mov	r12,	r6	;
    88ce:	07 4d       	mov	r13,	r7	;
    88d0:	08 4e       	mov	r14,	r8	;
    88d2:	09 4f       	mov	r15,	r9	;
    tmp |= p[0];
    88d4:	2a 4a       	mov	@r10,	r10	;
    88d6:	0c 4a       	mov	r10,	r12	;
    88d8:	b0 12 ec d1 	call	#53740		;#0xd1ec
    88dc:	0f 4c       	mov	r12,	r15	;
    return tmp >> 8;
    88de:	b1 42 00 00 	mov	#8,	0(r1)	;r2 As==11
    88e2:	0c 46       	mov	r6,	r12	;
    88e4:	0c da       	bis	r10,	r12	;
    88e6:	0d 47       	mov	r7,	r13	;
    88e8:	0d df       	bis	r15,	r13	;
    88ea:	0e 48       	mov	r8,	r14	;
    88ec:	0e df       	bis	r15,	r14	;
    88ee:	0f d9       	bis	r9,	r15	;
    88f0:	b0 12 90 cd 	call	#52624		;#0xcd90
}
    88f4:	21 53       	incd	r1		;
    88f6:	30 40 68 d1 	br	#0xd168		;

000088fa <int48_to_64>:
    use where interrupt code could not see a half completed operation.
    \param y The destination 64 bit value, which is zeroed
    \param x A pointer to the source 48 bit value.
 */
static __inline__ int64_t int48_to_64(int16_t x[3])
{
    88fa:	0a 12       	push	r10		;
    88fc:	09 12       	push	r9		;
    88fe:	08 12       	push	r8		;
    8900:	21 83       	decd	r1		;
    8902:	0a 4c       	mov	r12,	r10	;
    int64_t y;

    y = x[2];
    8904:	18 4c 04 00 	mov	4(r12),	r8	;
    8908:	0c 48       	mov	r8,	r12	;
    890a:	b0 12 ec d1 	call	#53740		;#0xd1ec
    890e:	0f 4c       	mov	r12,	r15	;
    y <<= 16;
    8910:	39 40 14 cd 	mov	#52500,	r9	;#0xcd14
    8914:	b1 40 10 00 	mov	#16,	0(r1)	;#0x0010
    8918:	00 00 
    891a:	0c 48       	mov	r8,	r12	;
    891c:	0d 4f       	mov	r15,	r13	;
    891e:	0e 4f       	mov	r15,	r14	;
    8920:	89 12       	call	r9		;
    y |= (uint16_t) x[1];
    8922:	1c da 02 00 	bis	2(r10),	r12	;
    y <<= 16;
    8926:	89 12       	call	r9		;
    y |= (uint16_t) x[0];
    return  y;
}
    8928:	2c da       	bis	@r10,	r12	;
    892a:	21 53       	incd	r1		;
    892c:	30 40 70 d1 	br	#0xd170		;

00008930 <int64_to_48>:
    use where interrupt code could not see a half completed operation.
    \param y A pointer to the destination 48 bit value.
    \param x The source 64 bit value, which is zeroed
 */
static __inline__ void int64_to_48(int16_t y[3], int64_t x)
{
    8930:	0a 12       	push	r10		;
    8932:	09 12       	push	r9		;
    8934:	08 12       	push	r8		;
    8936:	07 12       	push	r7		;
    8938:	06 12       	push	r6		;
    893a:	05 12       	push	r5		;
    893c:	21 83       	decd	r1		;
    893e:	0a 4c       	mov	r12,	r10	;
    8940:	19 41 10 00 	mov	16(r1),	r9	;0x00010
    8944:	15 41 12 00 	mov	18(r1),	r5	;0x00012
    8948:	16 41 14 00 	mov	20(r1),	r6	;0x00014
    894c:	17 41 16 00 	mov	22(r1),	r7	;0x00016
    y[2] = x >> 32;
    8950:	38 40 90 cd 	mov	#52624,	r8	;#0xcd90
    8954:	b1 40 20 00 	mov	#32,	0(r1)	;#0x0020
    8958:	00 00 
    895a:	0c 49       	mov	r9,	r12	;
    895c:	0d 45       	mov	r5,	r13	;
    895e:	0e 46       	mov	r6,	r14	;
    8960:	0f 47       	mov	r7,	r15	;
    8962:	88 12       	call	r8		;
    8964:	8a 4c 04 00 	mov	r12,	4(r10)	;
    y[1] = x >> 16;
    8968:	b1 40 10 00 	mov	#16,	0(r1)	;#0x0010
    896c:	00 00 
    896e:	0c 49       	mov	r9,	r12	;
    8970:	0d 45       	mov	r5,	r13	;
    8972:	0e 46       	mov	r6,	r14	;
    8974:	0f 47       	mov	r7,	r15	;
    8976:	88 12       	call	r8		;
    8978:	8a 4c 02 00 	mov	r12,	2(r10)	;
    y[0] = x;
    897c:	8a 49 00 00 	mov	r9,	0(r10)	;
}
    8980:	21 53       	incd	r1		;
    8982:	30 40 6a d1 	br	#0xd16a		;

00008986 <transfer48>:
    \param y A pointer to the destination 48 bit value.
    \param x A pointer to the source 48 bit value, which is zeroed
 */
static __inline__ void transfer48(int16_t y[3], int16_t x[3])
{
    y[2] = x[2];
    8986:	9c 4d 04 00 	mov	4(r13),	4(r12)	;
    898a:	04 00 
    y[1] = x[1];
    898c:	9c 4d 02 00 	mov	2(r13),	2(r12)	;
    8990:	02 00 
    y[0] = x[0];
    8992:	ac 4d 00 00 	mov	@r13,	0(r12)	;
    x[0] =
    x[1] =
    x[2] = 0;
    8996:	8d 43 04 00 	mov	#0,	4(r13)	;r3 As==00
{
    y[2] = x[2];
    y[1] = x[1];
    y[0] = x[0];
    x[0] =
    x[1] =
    899a:	8d 43 02 00 	mov	#0,	2(r13)	;r3 As==00
static __inline__ void transfer48(int16_t y[3], int16_t x[3])
{
    y[2] = x[2];
    y[1] = x[1];
    y[0] = x[0];
    x[0] =
    899e:	8d 43 00 00 	mov	#0,	0(r13)	;r3 As==00
    x[1] =
    x[2] = 0;
}
    89a2:	30 41       	ret			

000089a4 <assign48>:
    \param y A pointer to the destination 48 bit value.
    \param x A pointer to the source 48 bit value.
 */
static __inline__ void assign48(int16_t y[3], const int16_t x[3])
{
    y[2] = x[2];
    89a4:	9c 4d 04 00 	mov	4(r13),	4(r12)	;
    89a8:	04 00 
    y[1] = x[1];
    89aa:	9c 4d 02 00 	mov	2(r13),	2(r12)	;
    89ae:	02 00 
    y[0] = x[0];
    89b0:	ac 4d 00 00 	mov	@r13,	0(r12)	;
}
    89b4:	30 41       	ret			

000089b6 <clear48>:
    interrupts are already disabled.
    \param z A pointer to the 48 bit accumulator.
 */
static __inline__ void clear48(int16_t z[3])
{
    z[2] = 0;
    89b6:	8c 43 04 00 	mov	#0,	4(r12)	;r3 As==00
    z[1] = 0;
    89ba:	8c 43 02 00 	mov	#0,	2(r12)	;r3 As==00
    z[0] = 0;
    89be:	8c 43 00 00 	mov	#0,	0(r12)	;r3 As==00
}
    89c2:	30 41       	ret			

000089c4 <accum48>:
    /* Accumulate a 32 bit integer value into a 48 bit one represented
       by a 3 element int16_t array */
#if defined(__MSP430__)  &&  defined(__GNUC__)
    int16_t y_ex;

    __asm__ __volatile__ (
    89c4:	0f 43       	clr	r15		;
    89c6:	0f 4e       	mov	r14,	r15	;
    89c8:	0f 5f       	rla	r15		;
    89ca:	0f 7f       	subc	r15,	r15	;
    89cc:	3f e3       	inv	r15		;
    89ce:	8c 5d 00 00 	add	r13,	0(r12)	;
    89d2:	8c 6e 02 00 	addc	r14,	2(r12)	;
    89d6:	8c 6f 04 00 	addc	r15,	4(r12)	;
    acc >>= 16;
    x[1] = acc;
    acc >>= 16;
    x[2] = acc;
#endif
}
    89da:	30 41       	ret			

000089dc <brief_pause>:
#endif

static void __inline__ brief_pause(unsigned int n)
{
    while (n > 0)
    89dc:	0c 93       	cmp	#0,	r12	;r3 As==00
    89de:	04 24       	jz	$+10     	;abs 0x89e8
    {
        n--;
    89e0:	3c 53       	add	#-1,	r12	;r3 As==11
        __no_operation();
    89e2:	03 43       	nop			
}
#endif

static void __inline__ brief_pause(unsigned int n)
{
    while (n > 0)
    89e4:	0c 93       	cmp	#0,	r12	;r3 As==00
    89e6:	fc 23       	jnz	$-6      	;abs 0x89e0
    {
        n--;
        __no_operation();
    }
}
    89e8:	30 41       	ret			

000089ea <restart_watchdog>:

static void __inline__ restart_watchdog(void)
{
#if defined(__MSP430__)
    WDTCTL = (WDTCTL & 0xFF) | WDTPW | WDTCNTCL;
    89ea:	1c 42 20 01 	mov	&0x0120,r12	;0x0120
    89ee:	3c f0 ff 00 	and	#255,	r12	;#0x00ff
    89f2:	3c d0 08 5a 	bis	#23048,	r12	;#0x5a08
    89f6:	82 4c 20 01 	mov	r12,	&0x0120	;
#endif
}
    89fa:	30 41       	ret			

000089fc <dds_lookup>:
     32728, 32737, 32745, 32752, 32757, 32761, 32765, 32766,
     32767
};

int16_t dds_lookup(uint32_t phase)
{
    89fc:	0a 12       	push	r10		;
    89fe:	09 12       	push	r9		;
    8a00:	08 12       	push	r8		;
    int16_t amp;
    uint32_t step;

    phase >>= DDS_SHIFT;
    8a02:	3e 40 16 00 	mov	#22,	r14	;#0x0016
    8a06:	b0 12 0e d3 	call	#54030		;#0xd30e
    8a0a:	0d 4c       	mov	r12,	r13	;
    step = phase & (DDS_STEPS - 1);
    8a0c:	0e 4c       	mov	r12,	r14	;
    8a0e:	3e f0 ff 00 	and	#255,	r14	;#0x00ff
    8a12:	0f 43       	clr	r15		;
    if ((phase & DDS_STEPS))
    8a14:	3c b0 00 01 	bit	#256,	r12	;#0x0100
    8a18:	08 24       	jz	$+18     	;abs 0x8a2a
        step = DDS_STEPS - step;
    8a1a:	3a 40 00 01 	mov	#256,	r10	;#0x0100
    8a1e:	0b 43       	clr	r11		;
    8a20:	08 4a       	mov	r10,	r8	;
    8a22:	09 4b       	mov	r11,	r9	;
    8a24:	08 8e       	sub	r14,	r8	;
    8a26:	09 7f       	subc	r15,	r9	;
    8a28:	0e 48       	mov	r8,	r14	;
    amp = sine_table[step];
    8a2a:	0e 5e       	rla	r14		;
    8a2c:	1c 4e 00 80 	mov	-32768(r14),r12	;0xffff8000
    if ((phase & (2*DDS_STEPS)))
    8a30:	3d b0 00 02 	bit	#512,	r13	;#0x0200
    8a34:	03 24       	jz	$+8      	;abs 0x8a3c
    	amp = -amp;
    8a36:	09 43       	clr	r9		;
    8a38:	09 8c       	sub	r12,	r9	;
    8a3a:	0c 49       	mov	r9,	r12	;
    return amp;
}
    8a3c:	30 40 70 d1 	br	#0xd170		;

00008a40 <dds_interpolated_lookup>:

int16_t dds_interpolated_lookup(uint32_t phase)
{
    8a40:	0a 12       	push	r10		;
    8a42:	09 12       	push	r9		;
    8a44:	08 12       	push	r8		;
    8a46:	07 12       	push	r7		;
    8a48:	06 12       	push	r6		;
    8a4a:	06 4c       	mov	r12,	r6	;
    8a4c:	07 4d       	mov	r13,	r7	;
    uint16_t step;
    uint16_t stepx;
    uint16_t frac;

    /* An interpolated 4 quadrant lookup of the sine of the 32 bit phase angle supplied */
    frac = (phase >> (DDS_SHIFT - 8)) & 0xFF;
    8a4e:	b0 12 b0 d2 	call	#53936		;#0xd2b0
    8a52:	49 4c       	mov.b	r12,	r9	;
    phase >>= DDS_SHIFT;
    8a54:	0c 46       	mov	r6,	r12	;
    8a56:	0d 47       	mov	r7,	r13	;
    8a58:	3e 40 16 00 	mov	#22,	r14	;#0x0016
    8a5c:	b0 12 0e d3 	call	#54030		;#0xd30e
    8a60:	0a 4c       	mov	r12,	r10	;
    step = phase & (DDS_STEPS - 1);
    8a62:	0e 4c       	mov	r12,	r14	;
    8a64:	3e f0 ff 00 	and	#255,	r14	;#0x00ff
    if ((phase & DDS_STEPS))
    8a68:	3c b0 00 01 	bit	#256,	r12	;#0x0100
    8a6c:	09 24       	jz	$+20     	;abs 0x8a80
    {
        step = DDS_STEPS - step;
        stepx = step - 1;
    8a6e:	3f 40 ff 00 	mov	#255,	r15	;#0x00ff
    8a72:	0f 8e       	sub	r14,	r15	;
    frac = (phase >> (DDS_SHIFT - 8)) & 0xFF;
    phase >>= DDS_SHIFT;
    step = phase & (DDS_STEPS - 1);
    if ((phase & DDS_STEPS))
    {
        step = DDS_STEPS - step;
    8a74:	3c 40 00 01 	mov	#256,	r12	;#0x0100
    8a78:	0c 8e       	sub	r14,	r12	;
    8a7a:	0e 4c       	mov	r12,	r14	;
    8a7c:	30 40 84 8a 	br	#0x8a84		;
        stepx = step - 1;
    }
    else
    {
        stepx = step + 1;
    8a80:	0f 4e       	mov	r14,	r15	;
    8a82:	1f 53       	inc	r15		;
    }
    amp = sine_table[step];
    8a84:	3c 40 00 80 	mov	#32768,	r12	;#0x8000
    8a88:	0e 5e       	rla	r14		;
    8a8a:	0e 5c       	add	r12,	r14	;
    8a8c:	28 4e       	mov	@r14,	r8	;
    amp += (((sine_table[stepx] - amp)*frac) >> 8);
    8a8e:	0f 5f       	rla	r15		;
    8a90:	0f 5c       	add	r12,	r15	;
    8a92:	2c 4f       	mov	@r15,	r12	;
    8a94:	0c 88       	sub	r8,	r12	;
    8a96:	0d 49       	mov	r9,	r13	;
    8a98:	b0 12 14 d3 	call	#54036		;#0xd314
    8a9c:	b0 12 7c d2 	call	#53884		;#0xd27c
    8aa0:	0c 58       	add	r8,	r12	;
    if ((phase & (2*DDS_STEPS)))
    8aa2:	3a b0 00 02 	bit	#512,	r10	;#0x0200
    8aa6:	03 24       	jz	$+8      	;abs 0x8aae
    	amp = -amp;
    8aa8:	0d 43       	clr	r13		;
    8aaa:	0d 8c       	sub	r12,	r13	;
    8aac:	0c 4d       	mov	r13,	r12	;
    return amp;
}
    8aae:	30 40 6c d1 	br	#0xd16c		;

00008ab2 <dds>:

int16_t dds(uint32_t *phase_acc, int32_t phase_rate)
{
    8ab2:	0a 12       	push	r10		;
    8ab4:	09 12       	push	r9		;
    8ab6:	08 12       	push	r8		;
    8ab8:	07 12       	push	r7		;
    8aba:	06 12       	push	r6		;
    8abc:	0a 4c       	mov	r12,	r10	;
    8abe:	07 4d       	mov	r13,	r7	;
    8ac0:	06 4e       	mov	r14,	r6	;
    int16_t amp;

    amp = dds_lookup(*phase_acc);
    8ac2:	29 4c       	mov	@r12,	r9	;
    8ac4:	18 4c 02 00 	mov	2(r12),	r8	;
    8ac8:	0c 49       	mov	r9,	r12	;
    8aca:	0d 48       	mov	r8,	r13	;
    8acc:	b0 12 fc 89 	call	#35324		;#0x89fc
    *phase_acc += phase_rate;
    8ad0:	09 57       	add	r7,	r9	;
    8ad2:	8a 49 00 00 	mov	r9,	0(r10)	;
    8ad6:	08 66       	addc	r6,	r8	;
    8ad8:	8a 48 02 00 	mov	r8,	2(r10)	;
    return amp;
}
    8adc:	30 40 6c d1 	br	#0xd16c		;

00008ae0 <int48_to_64>:
    use where interrupt code could not see a half completed operation.
    \param y The destination 64 bit value, which is zeroed
    \param x A pointer to the source 48 bit value.
 */
static __inline__ int64_t int48_to_64(int16_t x[3])
{
    8ae0:	0a 12       	push	r10		;
    8ae2:	09 12       	push	r9		;
    8ae4:	08 12       	push	r8		;
    8ae6:	21 83       	decd	r1		;
    8ae8:	0a 4c       	mov	r12,	r10	;
    int64_t y;

    y = x[2];
    8aea:	18 4c 04 00 	mov	4(r12),	r8	;
    8aee:	0c 48       	mov	r8,	r12	;
    8af0:	b0 12 ec d1 	call	#53740		;#0xd1ec
    8af4:	0f 4c       	mov	r12,	r15	;
    y <<= 16;
    8af6:	39 40 14 cd 	mov	#52500,	r9	;#0xcd14
    8afa:	b1 40 10 00 	mov	#16,	0(r1)	;#0x0010
    8afe:	00 00 
    8b00:	0c 48       	mov	r8,	r12	;
    8b02:	0d 4f       	mov	r15,	r13	;
    8b04:	0e 4f       	mov	r15,	r14	;
    8b06:	89 12       	call	r9		;
    y |= (uint16_t) x[1];
    8b08:	1c da 02 00 	bis	2(r10),	r12	;
    y <<= 16;
    8b0c:	89 12       	call	r9		;
    y |= (uint16_t) x[0];
    return  y;
}
    8b0e:	2c da       	bis	@r10,	r12	;
    8b10:	21 53       	incd	r1		;
    8b12:	30 40 70 d1 	br	#0xd170		;

00008b16 <int64_to_48>:
    use where interrupt code could not see a half completed operation.
    \param y A pointer to the destination 48 bit value.
    \param x The source 64 bit value, which is zeroed
 */
static __inline__ void int64_to_48(int16_t y[3], int64_t x)
{
    8b16:	0a 12       	push	r10		;
    8b18:	09 12       	push	r9		;
    8b1a:	08 12       	push	r8		;
    8b1c:	07 12       	push	r7		;
    8b1e:	06 12       	push	r6		;
    8b20:	05 12       	push	r5		;
    8b22:	21 83       	decd	r1		;
    8b24:	0a 4c       	mov	r12,	r10	;
    8b26:	19 41 10 00 	mov	16(r1),	r9	;0x00010
    8b2a:	15 41 12 00 	mov	18(r1),	r5	;0x00012
    8b2e:	16 41 14 00 	mov	20(r1),	r6	;0x00014
    8b32:	17 41 16 00 	mov	22(r1),	r7	;0x00016
    y[2] = x >> 32;
    8b36:	38 40 90 cd 	mov	#52624,	r8	;#0xcd90
    8b3a:	b1 40 20 00 	mov	#32,	0(r1)	;#0x0020
    8b3e:	00 00 
    8b40:	0c 49       	mov	r9,	r12	;
    8b42:	0d 45       	mov	r5,	r13	;
    8b44:	0e 46       	mov	r6,	r14	;
    8b46:	0f 47       	mov	r7,	r15	;
    8b48:	88 12       	call	r8		;
    8b4a:	8a 4c 04 00 	mov	r12,	4(r10)	;
    y[1] = x >> 16;
    8b4e:	b1 40 10 00 	mov	#16,	0(r1)	;#0x0010
    8b52:	00 00 
    8b54:	0c 49       	mov	r9,	r12	;
    8b56:	0d 45       	mov	r5,	r13	;
    8b58:	0e 46       	mov	r6,	r14	;
    8b5a:	0f 47       	mov	r7,	r15	;
    8b5c:	88 12       	call	r8		;
    8b5e:	8a 4c 02 00 	mov	r12,	2(r10)	;
    y[0] = x;
    8b62:	8a 49 00 00 	mov	r9,	0(r10)	;
}
    8b66:	21 53       	incd	r1		;
    8b68:	30 40 6a d1 	br	#0xd16a		;

00008b6c <transfer48>:
    \param y A pointer to the destination 48 bit value.
    \param x A pointer to the source 48 bit value, which is zeroed
 */
static __inline__ void transfer48(int16_t y[3], int16_t x[3])
{
    y[2] = x[2];
    8b6c:	9c 4d 04 00 	mov	4(r13),	4(r12)	;
    8b70:	04 00 
    y[1] = x[1];
    8b72:	9c 4d 02 00 	mov	2(r13),	2(r12)	;
    8b76:	02 00 
    y[0] = x[0];
    8b78:	ac 4d 00 00 	mov	@r13,	0(r12)	;
    x[0] =
    x[1] =
    x[2] = 0;
    8b7c:	8d 43 04 00 	mov	#0,	4(r13)	;r3 As==00
{
    y[2] = x[2];
    y[1] = x[1];
    y[0] = x[0];
    x[0] =
    x[1] =
    8b80:	8d 43 02 00 	mov	#0,	2(r13)	;r3 As==00
static __inline__ void transfer48(int16_t y[3], int16_t x[3])
{
    y[2] = x[2];
    y[1] = x[1];
    y[0] = x[0];
    x[0] =
    8b84:	8d 43 00 00 	mov	#0,	0(r13)	;r3 As==00
    x[1] =
    x[2] = 0;
}
    8b88:	30 41       	ret			

00008b8a <assign48>:
    \param y A pointer to the destination 48 bit value.
    \param x A pointer to the source 48 bit value.
 */
static __inline__ void assign48(int16_t y[3], const int16_t x[3])
{
    y[2] = x[2];
    8b8a:	9c 4d 04 00 	mov	4(r13),	4(r12)	;
    8b8e:	04 00 
    y[1] = x[1];
    8b90:	9c 4d 02 00 	mov	2(r13),	2(r12)	;
    8b94:	02 00 
    y[0] = x[0];
    8b96:	ac 4d 00 00 	mov	@r13,	0(r12)	;
}
    8b9a:	30 41       	ret			

00008b9c <clear48>:
    interrupts are already disabled.
    \param z A pointer to the 48 bit accumulator.
 */
static __inline__ void clear48(int16_t z[3])
{
    z[2] = 0;
    8b9c:	8c 43 04 00 	mov	#0,	4(r12)	;r3 As==00
    z[1] = 0;
    8ba0:	8c 43 02 00 	mov	#0,	2(r12)	;r3 As==00
    z[0] = 0;
    8ba4:	8c 43 00 00 	mov	#0,	0(r12)	;r3 As==00
}
    8ba8:	30 41       	ret			

00008baa <accum48>:
    /* Accumulate a 32 bit integer value into a 48 bit one represented
       by a 3 element int16_t array */
#if defined(__MSP430__)  &&  defined(__GNUC__)
    int16_t y_ex;

    __asm__ __volatile__ (
    8baa:	0f 43       	clr	r15		;
    8bac:	0f 4e       	mov	r14,	r15	;
    8bae:	0f 5f       	rla	r15		;
    8bb0:	0f 7f       	subc	r15,	r15	;
    8bb2:	3f e3       	inv	r15		;
    8bb4:	8c 5d 00 00 	add	r13,	0(r12)	;
    8bb8:	8c 6e 02 00 	addc	r14,	2(r12)	;
    8bbc:	8c 6f 04 00 	addc	r15,	4(r12)	;
    acc >>= 16;
    x[1] = acc;
    acc >>= 16;
    x[2] = acc;
#endif
}
    8bc0:	30 41       	ret			

00008bc2 <brief_pause>:
#endif

static void __inline__ brief_pause(unsigned int n)
{
    while (n > 0)
    8bc2:	0c 93       	cmp	#0,	r12	;r3 As==00
    8bc4:	04 24       	jz	$+10     	;abs 0x8bce
    {
        n--;
    8bc6:	3c 53       	add	#-1,	r12	;r3 As==11
        __no_operation();
    8bc8:	03 43       	nop			
}
#endif

static void __inline__ brief_pause(unsigned int n)
{
    while (n > 0)
    8bca:	0c 93       	cmp	#0,	r12	;r3 As==00
    8bcc:	fc 23       	jnz	$-6      	;abs 0x8bc6
    {
        n--;
        __no_operation();
    }
}
    8bce:	30 41       	ret			

00008bd0 <restart_watchdog>:

static void __inline__ restart_watchdog(void)
{
#if defined(__MSP430__)
    WDTCTL = (WDTCTL & 0xFF) | WDTPW | WDTCNTCL;
    8bd0:	1c 42 20 01 	mov	&0x0120,r12	;0x0120
    8bd4:	3c f0 ff 00 	and	#255,	r12	;#0x00ff
    8bd8:	3c d0 08 5a 	bis	#23048,	r12	;#0x5a08
    8bdc:	82 4c 20 01 	mov	r12,	&0x0120	;
#endif
}
    8be0:	30 41       	ret			

00008be2 <div48>:
#include <msp430.h>
#endif
#include "emeter-toolkit.h"

int32_t div48(int16_t x[3], int16_t y)
{
    8be2:	0a 12       	push	r10		;
    8be4:	09 12       	push	r9		;
    8be6:	08 12       	push	r8		;
    8be8:	07 12       	push	r7		;
    8bea:	06 12       	push	r6		;
    8bec:	05 12       	push	r5		;
    8bee:	04 12       	push	r4		;
    8bf0:	21 83       	decd	r1		;
       handling dot products. */
    int32_t x1;
    int32_t z;

    /* Avoid any divide by zero trouble */
    if (y == 0)
    8bf2:	0d 93       	cmp	#0,	r13	;r3 As==00
    8bf4:	39 24       	jz	$+116    	;abs 0x8c68
    8bf6:	08 4d       	mov	r13,	r8	;
    8bf8:	0a 4c       	mov	r12,	r10	;
        return 0;
    x1 = x[2]%y;
    8bfa:	1c 4c 04 00 	mov	4(r12),	r12	;
    8bfe:	b0 12 d6 ce 	call	#52950		;#0xced6
    x1 <<= 16;
    8c02:	3c b0 00 80 	bit	#32768,	r12	;#0x8000
    8c06:	0d 7d       	subc	r13,	r13	;
    8c08:	3d e3       	inv	r13		;
    8c0a:	3e 40 10 00 	mov	#16,	r14	;#0x0010
    8c0e:	b0 12 e6 d1 	call	#53734		;#0xd1e6
    8c12:	04 4d       	mov	r13,	r4	;
    x1 |= (uint16_t) x[1];
    8c14:	07 4c       	mov	r12,	r7	;
    8c16:	17 da 02 00 	bis	2(r10),	r7	;
    z = x1/y;
    8c1a:	38 b0 00 80 	bit	#32768,	r8	;#0x8000
    8c1e:	09 79       	subc	r9,	r9	;
    8c20:	39 e3       	inv	r9		;
    x1 = x1%y;
    8c22:	0c 47       	mov	r7,	r12	;
    8c24:	0e 48       	mov	r8,	r14	;
    8c26:	0f 49       	mov	r9,	r15	;
    8c28:	b0 12 26 d0 	call	#53286		;#0xd026
    x1 <<= 16;
    8c2c:	3e 40 10 00 	mov	#16,	r14	;#0x0010
    8c30:	b0 12 e6 d1 	call	#53734		;#0xd1e6
    8c34:	05 4c       	mov	r12,	r5	;
    8c36:	81 4d 00 00 	mov	r13,	0(r1)	;
    if (y == 0)
        return 0;
    x1 = x[2]%y;
    x1 <<= 16;
    x1 |= (uint16_t) x[1];
    z = x1/y;
    8c3a:	36 40 a2 cf 	mov	#53154,	r6	;#0xcfa2
    8c3e:	0c 47       	mov	r7,	r12	;
    8c40:	0d 44       	mov	r4,	r13	;
    8c42:	0e 48       	mov	r8,	r14	;
    8c44:	0f 49       	mov	r9,	r15	;
    8c46:	86 12       	call	r6		;
    x1 = x1%y;
    x1 <<= 16;
    x1 |= (uint16_t) x[0];
    z = (z << 16) + x1/y;
    8c48:	3e 40 10 00 	mov	#16,	r14	;#0x0010
    8c4c:	b0 12 e6 d1 	call	#53734		;#0xd1e6
    8c50:	07 4c       	mov	r12,	r7	;
    8c52:	04 4d       	mov	r13,	r4	;
    8c54:	0c 45       	mov	r5,	r12	;
    8c56:	2c da       	bis	@r10,	r12	;
    8c58:	2d 41       	mov	@r1,	r13	;
    8c5a:	0e 48       	mov	r8,	r14	;
    8c5c:	0f 49       	mov	r9,	r15	;
    8c5e:	86 12       	call	r6		;
    8c60:	0c 57       	add	r7,	r12	;
    8c62:	0d 64       	addc	r4,	r13	;
    return z;
    8c64:	30 40 6c 8c 	br	#0x8c6c		;
    int32_t x1;
    int32_t z;

    /* Avoid any divide by zero trouble */
    if (y == 0)
        return 0;
    8c68:	0c 43       	clr	r12		;
    8c6a:	0d 4c       	mov	r12,	r13	;
    x1 = x1%y;
    x1 <<= 16;
    x1 |= (uint16_t) x[0];
    z = (z << 16) + x1/y;
    return z;
}
    8c6c:	21 53       	incd	r1		;
    8c6e:	30 40 68 d1 	br	#0xd168		;

00008c72 <int48_to_64>:
    use where interrupt code could not see a half completed operation.
    \param y The destination 64 bit value, which is zeroed
    \param x A pointer to the source 48 bit value.
 */
static __inline__ int64_t int48_to_64(int16_t x[3])
{
    8c72:	0a 12       	push	r10		;
    8c74:	09 12       	push	r9		;
    8c76:	08 12       	push	r8		;
    8c78:	21 83       	decd	r1		;
    8c7a:	0a 4c       	mov	r12,	r10	;
    int64_t y;

    y = x[2];
    8c7c:	18 4c 04 00 	mov	4(r12),	r8	;
    8c80:	0c 48       	mov	r8,	r12	;
    8c82:	b0 12 ec d1 	call	#53740		;#0xd1ec
    8c86:	0f 4c       	mov	r12,	r15	;
    y <<= 16;
    8c88:	39 40 14 cd 	mov	#52500,	r9	;#0xcd14
    8c8c:	b1 40 10 00 	mov	#16,	0(r1)	;#0x0010
    8c90:	00 00 
    8c92:	0c 48       	mov	r8,	r12	;
    8c94:	0d 4f       	mov	r15,	r13	;
    8c96:	0e 4f       	mov	r15,	r14	;
    8c98:	89 12       	call	r9		;
    y |= (uint16_t) x[1];
    8c9a:	1c da 02 00 	bis	2(r10),	r12	;
    y <<= 16;
    8c9e:	89 12       	call	r9		;
    y |= (uint16_t) x[0];
    return  y;
}
    8ca0:	2c da       	bis	@r10,	r12	;
    8ca2:	21 53       	incd	r1		;
    8ca4:	30 40 70 d1 	br	#0xd170		;

00008ca8 <int64_to_48>:
    use where interrupt code could not see a half completed operation.
    \param y A pointer to the destination 48 bit value.
    \param x The source 64 bit value, which is zeroed
 */
static __inline__ void int64_to_48(int16_t y[3], int64_t x)
{
    8ca8:	0a 12       	push	r10		;
    8caa:	09 12       	push	r9		;
    8cac:	08 12       	push	r8		;
    8cae:	07 12       	push	r7		;
    8cb0:	06 12       	push	r6		;
    8cb2:	05 12       	push	r5		;
    8cb4:	21 83       	decd	r1		;
    8cb6:	0a 4c       	mov	r12,	r10	;
    8cb8:	19 41 10 00 	mov	16(r1),	r9	;0x00010
    8cbc:	15 41 12 00 	mov	18(r1),	r5	;0x00012
    8cc0:	16 41 14 00 	mov	20(r1),	r6	;0x00014
    8cc4:	17 41 16 00 	mov	22(r1),	r7	;0x00016
    y[2] = x >> 32;
    8cc8:	38 40 90 cd 	mov	#52624,	r8	;#0xcd90
    8ccc:	b1 40 20 00 	mov	#32,	0(r1)	;#0x0020
    8cd0:	00 00 
    8cd2:	0c 49       	mov	r9,	r12	;
    8cd4:	0d 45       	mov	r5,	r13	;
    8cd6:	0e 46       	mov	r6,	r14	;
    8cd8:	0f 47       	mov	r7,	r15	;
    8cda:	88 12       	call	r8		;
    8cdc:	8a 4c 04 00 	mov	r12,	4(r10)	;
    y[1] = x >> 16;
    8ce0:	b1 40 10 00 	mov	#16,	0(r1)	;#0x0010
    8ce4:	00 00 
    8ce6:	0c 49       	mov	r9,	r12	;
    8ce8:	0d 45       	mov	r5,	r13	;
    8cea:	0e 46       	mov	r6,	r14	;
    8cec:	0f 47       	mov	r7,	r15	;
    8cee:	88 12       	call	r8		;
    8cf0:	8a 4c 02 00 	mov	r12,	2(r10)	;
    y[0] = x;
    8cf4:	8a 49 00 00 	mov	r9,	0(r10)	;
}
    8cf8:	21 53       	incd	r1		;
    8cfa:	30 40 6a d1 	br	#0xd16a		;

00008cfe <transfer48>:
    \param y A pointer to the destination 48 bit value.
    \param x A pointer to the source 48 bit value, which is zeroed
 */
static __inline__ void transfer48(int16_t y[3], int16_t x[3])
{
    y[2] = x[2];
    8cfe:	9c 4d 04 00 	mov	4(r13),	4(r12)	;
    8d02:	04 00 
    y[1] = x[1];
    8d04:	9c 4d 02 00 	mov	2(r13),	2(r12)	;
    8d08:	02 00 
    y[0] = x[0];
    8d0a:	ac 4d 00 00 	mov	@r13,	0(r12)	;
    x[0] =
    x[1] =
    x[2] = 0;
    8d0e:	8d 43 04 00 	mov	#0,	4(r13)	;r3 As==00
{
    y[2] = x[2];
    y[1] = x[1];
    y[0] = x[0];
    x[0] =
    x[1] =
    8d12:	8d 43 02 00 	mov	#0,	2(r13)	;r3 As==00
static __inline__ void transfer48(int16_t y[3], int16_t x[3])
{
    y[2] = x[2];
    y[1] = x[1];
    y[0] = x[0];
    x[0] =
    8d16:	8d 43 00 00 	mov	#0,	0(r13)	;r3 As==00
    x[1] =
    x[2] = 0;
}
    8d1a:	30 41       	ret			

00008d1c <assign48>:
    \param y A pointer to the destination 48 bit value.
    \param x A pointer to the source 48 bit value.
 */
static __inline__ void assign48(int16_t y[3], const int16_t x[3])
{
    y[2] = x[2];
    8d1c:	9c 4d 04 00 	mov	4(r13),	4(r12)	;
    8d20:	04 00 
    y[1] = x[1];
    8d22:	9c 4d 02 00 	mov	2(r13),	2(r12)	;
    8d26:	02 00 
    y[0] = x[0];
    8d28:	ac 4d 00 00 	mov	@r13,	0(r12)	;
}
    8d2c:	30 41       	ret			

00008d2e <clear48>:
    interrupts are already disabled.
    \param z A pointer to the 48 bit accumulator.
 */
static __inline__ void clear48(int16_t z[3])
{
    z[2] = 0;
    8d2e:	8c 43 04 00 	mov	#0,	4(r12)	;r3 As==00
    z[1] = 0;
    8d32:	8c 43 02 00 	mov	#0,	2(r12)	;r3 As==00
    z[0] = 0;
    8d36:	8c 43 00 00 	mov	#0,	0(r12)	;r3 As==00
}
    8d3a:	30 41       	ret			

00008d3c <accum48>:
    /* Accumulate a 32 bit integer value into a 48 bit one represented
       by a 3 element int16_t array */
#if defined(__MSP430__)  &&  defined(__GNUC__)
    int16_t y_ex;

    __asm__ __volatile__ (
    8d3c:	0f 43       	clr	r15		;
    8d3e:	0f 4e       	mov	r14,	r15	;
    8d40:	0f 5f       	rla	r15		;
    8d42:	0f 7f       	subc	r15,	r15	;
    8d44:	3f e3       	inv	r15		;
    8d46:	8c 5d 00 00 	add	r13,	0(r12)	;
    8d4a:	8c 6e 02 00 	addc	r14,	2(r12)	;
    8d4e:	8c 6f 04 00 	addc	r15,	4(r12)	;
    acc >>= 16;
    x[1] = acc;
    acc >>= 16;
    x[2] = acc;
#endif
}
    8d52:	30 41       	ret			

00008d54 <brief_pause>:
#endif

static void __inline__ brief_pause(unsigned int n)
{
    while (n > 0)
    8d54:	0c 93       	cmp	#0,	r12	;r3 As==00
    8d56:	04 24       	jz	$+10     	;abs 0x8d60
    {
        n--;
    8d58:	3c 53       	add	#-1,	r12	;r3 As==11
        __no_operation();
    8d5a:	03 43       	nop			
}
#endif

static void __inline__ brief_pause(unsigned int n)
{
    while (n > 0)
    8d5c:	0c 93       	cmp	#0,	r12	;r3 As==00
    8d5e:	fc 23       	jnz	$-6      	;abs 0x8d58
    {
        n--;
        __no_operation();
    }
}
    8d60:	30 41       	ret			

00008d62 <restart_watchdog>:

static void __inline__ restart_watchdog(void)
{
#if defined(__MSP430__)
    WDTCTL = (WDTCTL & 0xFF) | WDTPW | WDTCNTCL;
    8d62:	1c 42 20 01 	mov	&0x0120,r12	;0x0120
    8d66:	3c f0 ff 00 	and	#255,	r12	;#0x00ff
    8d6a:	3c d0 08 5a 	bis	#23048,	r12	;#0x5a08
    8d6e:	82 4c 20 01 	mov	r12,	&0x0120	;
#endif
}
    8d72:	30 41       	ret			

00008d74 <imul16>:
{
    int32_t z;

#if defined(__GNUC__)  &&  defined(__MSP430__)
#if (defined(__MSP430_HAS_MPY__)  ||  defined(__MSP430_HAS_MPY32__))  &&  !defined(__TOOLKIT_USE_SOFT_MPY__)
    __asm__ (
    8d74:	02 12       	push	r2		;
    8d76:	32 c2       	dint			
    8d78:	82 4c 32 01 	mov	r12,	&0x0132	;
    8d7c:	82 4d 38 01 	mov	r13,	&0x0138	;
    8d80:	1d 42 3c 01 	mov	&0x013c,r13	;0x013c
    8d84:	1c 42 3a 01 	mov	&0x013a,r12	;0x013a
    8d88:	32 41       	pop	r2		;
#endif
#else
    z = (int32_t) x*(int32_t) y;
#endif
    return z;
}
    8d8a:	30 41       	ret			

00008d8c <int48_to_64>:
    use where interrupt code could not see a half completed operation.
    \param y The destination 64 bit value, which is zeroed
    \param x A pointer to the source 48 bit value.
 */
static __inline__ int64_t int48_to_64(int16_t x[3])
{
    8d8c:	0a 12       	push	r10		;
    8d8e:	09 12       	push	r9		;
    8d90:	08 12       	push	r8		;
    8d92:	21 83       	decd	r1		;
    8d94:	0a 4c       	mov	r12,	r10	;
    int64_t y;

    y = x[2];
    8d96:	18 4c 04 00 	mov	4(r12),	r8	;
    8d9a:	0c 48       	mov	r8,	r12	;
    8d9c:	b0 12 ec d1 	call	#53740		;#0xd1ec
    8da0:	0f 4c       	mov	r12,	r15	;
    y <<= 16;
    8da2:	39 40 14 cd 	mov	#52500,	r9	;#0xcd14
    8da6:	b1 40 10 00 	mov	#16,	0(r1)	;#0x0010
    8daa:	00 00 
    8dac:	0c 48       	mov	r8,	r12	;
    8dae:	0d 4f       	mov	r15,	r13	;
    8db0:	0e 4f       	mov	r15,	r14	;
    8db2:	89 12       	call	r9		;
    y |= (uint16_t) x[1];
    8db4:	1c da 02 00 	bis	2(r10),	r12	;
    y <<= 16;
    8db8:	89 12       	call	r9		;
    y |= (uint16_t) x[0];
    return  y;
}
    8dba:	2c da       	bis	@r10,	r12	;
    8dbc:	21 53       	incd	r1		;
    8dbe:	30 40 70 d1 	br	#0xd170		;

00008dc2 <int64_to_48>:
    use where interrupt code could not see a half completed operation.
    \param y A pointer to the destination 48 bit value.
    \param x The source 64 bit value, which is zeroed
 */
static __inline__ void int64_to_48(int16_t y[3], int64_t x)
{
    8dc2:	0a 12       	push	r10		;
    8dc4:	09 12       	push	r9		;
    8dc6:	08 12       	push	r8		;
    8dc8:	07 12       	push	r7		;
    8dca:	06 12       	push	r6		;
    8dcc:	05 12       	push	r5		;
    8dce:	21 83       	decd	r1		;
    8dd0:	0a 4c       	mov	r12,	r10	;
    8dd2:	19 41 10 00 	mov	16(r1),	r9	;0x00010
    8dd6:	15 41 12 00 	mov	18(r1),	r5	;0x00012
    8dda:	16 41 14 00 	mov	20(r1),	r6	;0x00014
    8dde:	17 41 16 00 	mov	22(r1),	r7	;0x00016
    y[2] = x >> 32;
    8de2:	38 40 90 cd 	mov	#52624,	r8	;#0xcd90
    8de6:	b1 40 20 00 	mov	#32,	0(r1)	;#0x0020
    8dea:	00 00 
    8dec:	0c 49       	mov	r9,	r12	;
    8dee:	0d 45       	mov	r5,	r13	;
    8df0:	0e 46       	mov	r6,	r14	;
    8df2:	0f 47       	mov	r7,	r15	;
    8df4:	88 12       	call	r8		;
    8df6:	8a 4c 04 00 	mov	r12,	4(r10)	;
    y[1] = x >> 16;
    8dfa:	b1 40 10 00 	mov	#16,	0(r1)	;#0x0010
    8dfe:	00 00 
    8e00:	0c 49       	mov	r9,	r12	;
    8e02:	0d 45       	mov	r5,	r13	;
    8e04:	0e 46       	mov	r6,	r14	;
    8e06:	0f 47       	mov	r7,	r15	;
    8e08:	88 12       	call	r8		;
    8e0a:	8a 4c 02 00 	mov	r12,	2(r10)	;
    y[0] = x;
    8e0e:	8a 49 00 00 	mov	r9,	0(r10)	;
}
    8e12:	21 53       	incd	r1		;
    8e14:	30 40 6a d1 	br	#0xd16a		;

00008e18 <transfer48>:
    \param y A pointer to the destination 48 bit value.
    \param x A pointer to the source 48 bit value, which is zeroed
 */
static __inline__ void transfer48(int16_t y[3], int16_t x[3])
{
    y[2] = x[2];
    8e18:	9c 4d 04 00 	mov	4(r13),	4(r12)	;
    8e1c:	04 00 
    y[1] = x[1];
    8e1e:	9c 4d 02 00 	mov	2(r13),	2(r12)	;
    8e22:	02 00 
    y[0] = x[0];
    8e24:	ac 4d 00 00 	mov	@r13,	0(r12)	;
    x[0] =
    x[1] =
    x[2] = 0;
    8e28:	8d 43 04 00 	mov	#0,	4(r13)	;r3 As==00
{
    y[2] = x[2];
    y[1] = x[1];
    y[0] = x[0];
    x[0] =
    x[1] =
    8e2c:	8d 43 02 00 	mov	#0,	2(r13)	;r3 As==00
static __inline__ void transfer48(int16_t y[3], int16_t x[3])
{
    y[2] = x[2];
    y[1] = x[1];
    y[0] = x[0];
    x[0] =
    8e30:	8d 43 00 00 	mov	#0,	0(r13)	;r3 As==00
    x[1] =
    x[2] = 0;
}
    8e34:	30 41       	ret			

00008e36 <assign48>:
    \param y A pointer to the destination 48 bit value.
    \param x A pointer to the source 48 bit value.
 */
static __inline__ void assign48(int16_t y[3], const int16_t x[3])
{
    y[2] = x[2];
    8e36:	9c 4d 04 00 	mov	4(r13),	4(r12)	;
    8e3a:	04 00 
    y[1] = x[1];
    8e3c:	9c 4d 02 00 	mov	2(r13),	2(r12)	;
    8e40:	02 00 
    y[0] = x[0];
    8e42:	ac 4d 00 00 	mov	@r13,	0(r12)	;
}
    8e46:	30 41       	ret			

00008e48 <clear48>:
    interrupts are already disabled.
    \param z A pointer to the 48 bit accumulator.
 */
static __inline__ void clear48(int16_t z[3])
{
    z[2] = 0;
    8e48:	8c 43 04 00 	mov	#0,	4(r12)	;r3 As==00
    z[1] = 0;
    8e4c:	8c 43 02 00 	mov	#0,	2(r12)	;r3 As==00
    z[0] = 0;
    8e50:	8c 43 00 00 	mov	#0,	0(r12)	;r3 As==00
}
    8e54:	30 41       	ret			

00008e56 <accum48>:
    /* Accumulate a 32 bit integer value into a 48 bit one represented
       by a 3 element int16_t array */
#if defined(__MSP430__)  &&  defined(__GNUC__)
    int16_t y_ex;

    __asm__ __volatile__ (
    8e56:	0f 43       	clr	r15		;
    8e58:	0f 4e       	mov	r14,	r15	;
    8e5a:	0f 5f       	rla	r15		;
    8e5c:	0f 7f       	subc	r15,	r15	;
    8e5e:	3f e3       	inv	r15		;
    8e60:	8c 5d 00 00 	add	r13,	0(r12)	;
    8e64:	8c 6e 02 00 	addc	r14,	2(r12)	;
    8e68:	8c 6f 04 00 	addc	r15,	4(r12)	;
    acc >>= 16;
    x[1] = acc;
    acc >>= 16;
    x[2] = acc;
#endif
}
    8e6c:	30 41       	ret			

00008e6e <brief_pause>:
#endif

static void __inline__ brief_pause(unsigned int n)
{
    while (n > 0)
    8e6e:	0c 93       	cmp	#0,	r12	;r3 As==00
    8e70:	04 24       	jz	$+10     	;abs 0x8e7a
    {
        n--;
    8e72:	3c 53       	add	#-1,	r12	;r3 As==11
        __no_operation();
    8e74:	03 43       	nop			
}
#endif

static void __inline__ brief_pause(unsigned int n)
{
    while (n > 0)
    8e76:	0c 93       	cmp	#0,	r12	;r3 As==00
    8e78:	fc 23       	jnz	$-6      	;abs 0x8e72
    {
        n--;
        __no_operation();
    }
}
    8e7a:	30 41       	ret			

00008e7c <restart_watchdog>:

static void __inline__ restart_watchdog(void)
{
#if defined(__MSP430__)
    WDTCTL = (WDTCTL & 0xFF) | WDTPW | WDTCNTCL;
    8e7c:	1c 42 20 01 	mov	&0x0120,r12	;0x0120
    8e80:	3c f0 ff 00 	and	#255,	r12	;#0x00ff
    8e84:	3c d0 08 5a 	bis	#23048,	r12	;#0x5a08
    8e88:	82 4c 20 01 	mov	r12,	&0x0120	;
#endif
}
    8e8c:	30 41       	ret			

00008e8e <isqrt32>:

#include <inttypes.h>
#include "emeter-toolkit.h"

uint32_t isqrt32(uint32_t h)
{
    8e8e:	09 12       	push	r9		;
    8e90:	08 12       	push	r8		;
    8e92:	07 12       	push	r7		;
    8e94:	06 12       	push	r6		;
            y |= 1;
        h <<= 1;
    }
#endif
    return  x;
}
    8e96:	0e 43       	clr	r14		;
    8e98:	0f 43       	clr	r15		;
    8e9a:	08 43       	clr	r8		;
    8e9c:	39 40 00 80 	mov	#32768,	r9	;#0x8000
    8ea0:	3b 40 20 00 	mov	#32,	r11	;#0x0020
    8ea4:	06 48       	mov	r8,	r6	;
    8ea6:	07 49       	mov	r9,	r7	;
    8ea8:	12 d3       	setc			
    8eaa:	06 66       	rlc	r6		;
    8eac:	07 67       	rlc	r7		;
    8eae:	0e 86       	sub	r6,	r14	;
    8eb0:	0f 77       	subc	r7,	r15	;
    8eb2:	03 2c       	jc	$+8      	;abs 0x8eba
    8eb4:	0e 56       	add	r6,	r14	;
    8eb6:	0f 67       	addc	r7,	r15	;
    8eb8:	26 83       	decd	r6		;
    8eba:	16 53       	inc	r6		;
    8ebc:	0c 5c       	rla	r12		;
    8ebe:	0d 6d       	rlc	r13		;
    8ec0:	0e 6e       	rlc	r14		;
    8ec2:	0f 6f       	rlc	r15		;
    8ec4:	0c 5c       	rla	r12		;
    8ec6:	0d 6d       	rlc	r13		;
    8ec8:	0e 6e       	rlc	r14		;
    8eca:	0f 6f       	rlc	r15		;
    8ecc:	1b 83       	dec	r11		;
    8ece:	ec 23       	jnz	$-38     	;abs 0x8ea8
    8ed0:	0c 46       	mov	r6,	r12	;
    8ed2:	0d 47       	mov	r7,	r13	;
    8ed4:	36 41       	pop	r6		;
    8ed6:	37 41       	pop	r7		;
    8ed8:	38 41       	pop	r8		;
    8eda:	39 41       	pop	r9		;
    8edc:	30 41       	ret			

00008ede <int48_to_64>:
    use where interrupt code could not see a half completed operation.
    \param y The destination 64 bit value, which is zeroed
    \param x A pointer to the source 48 bit value.
 */
static __inline__ int64_t int48_to_64(int16_t x[3])
{
    8ede:	0a 12       	push	r10		;
    8ee0:	09 12       	push	r9		;
    8ee2:	08 12       	push	r8		;
    8ee4:	21 83       	decd	r1		;
    8ee6:	0a 4c       	mov	r12,	r10	;
    int64_t y;

    y = x[2];
    8ee8:	18 4c 04 00 	mov	4(r12),	r8	;
    8eec:	0c 48       	mov	r8,	r12	;
    8eee:	b0 12 ec d1 	call	#53740		;#0xd1ec
    8ef2:	0f 4c       	mov	r12,	r15	;
    y <<= 16;
    8ef4:	39 40 14 cd 	mov	#52500,	r9	;#0xcd14
    8ef8:	b1 40 10 00 	mov	#16,	0(r1)	;#0x0010
    8efc:	00 00 
    8efe:	0c 48       	mov	r8,	r12	;
    8f00:	0d 4f       	mov	r15,	r13	;
    8f02:	0e 4f       	mov	r15,	r14	;
    8f04:	89 12       	call	r9		;
    y |= (uint16_t) x[1];
    8f06:	1c da 02 00 	bis	2(r10),	r12	;
    y <<= 16;
    8f0a:	89 12       	call	r9		;
    y |= (uint16_t) x[0];
    return  y;
}
    8f0c:	2c da       	bis	@r10,	r12	;
    8f0e:	21 53       	incd	r1		;
    8f10:	30 40 70 d1 	br	#0xd170		;

00008f14 <int64_to_48>:
    use where interrupt code could not see a half completed operation.
    \param y A pointer to the destination 48 bit value.
    \param x The source 64 bit value, which is zeroed
 */
static __inline__ void int64_to_48(int16_t y[3], int64_t x)
{
    8f14:	0a 12       	push	r10		;
    8f16:	09 12       	push	r9		;
    8f18:	08 12       	push	r8		;
    8f1a:	07 12       	push	r7		;
    8f1c:	06 12       	push	r6		;
    8f1e:	05 12       	push	r5		;
    8f20:	21 83       	decd	r1		;
    8f22:	0a 4c       	mov	r12,	r10	;
    8f24:	19 41 10 00 	mov	16(r1),	r9	;0x00010
    8f28:	15 41 12 00 	mov	18(r1),	r5	;0x00012
    8f2c:	16 41 14 00 	mov	20(r1),	r6	;0x00014
    8f30:	17 41 16 00 	mov	22(r1),	r7	;0x00016
    y[2] = x >> 32;
    8f34:	38 40 90 cd 	mov	#52624,	r8	;#0xcd90
    8f38:	b1 40 20 00 	mov	#32,	0(r1)	;#0x0020
    8f3c:	00 00 
    8f3e:	0c 49       	mov	r9,	r12	;
    8f40:	0d 45       	mov	r5,	r13	;
    8f42:	0e 46       	mov	r6,	r14	;
    8f44:	0f 47       	mov	r7,	r15	;
    8f46:	88 12       	call	r8		;
    8f48:	8a 4c 04 00 	mov	r12,	4(r10)	;
    y[1] = x >> 16;
    8f4c:	b1 40 10 00 	mov	#16,	0(r1)	;#0x0010
    8f50:	00 00 
    8f52:	0c 49       	mov	r9,	r12	;
    8f54:	0d 45       	mov	r5,	r13	;
    8f56:	0e 46       	mov	r6,	r14	;
    8f58:	0f 47       	mov	r7,	r15	;
    8f5a:	88 12       	call	r8		;
    8f5c:	8a 4c 02 00 	mov	r12,	2(r10)	;
    y[0] = x;
    8f60:	8a 49 00 00 	mov	r9,	0(r10)	;
}
    8f64:	21 53       	incd	r1		;
    8f66:	30 40 6a d1 	br	#0xd16a		;

00008f6a <transfer48>:
    \param y A pointer to the destination 48 bit value.
    \param x A pointer to the source 48 bit value, which is zeroed
 */
static __inline__ void transfer48(int16_t y[3], int16_t x[3])
{
    y[2] = x[2];
    8f6a:	9c 4d 04 00 	mov	4(r13),	4(r12)	;
    8f6e:	04 00 
    y[1] = x[1];
    8f70:	9c 4d 02 00 	mov	2(r13),	2(r12)	;
    8f74:	02 00 
    y[0] = x[0];
    8f76:	ac 4d 00 00 	mov	@r13,	0(r12)	;
    x[0] =
    x[1] =
    x[2] = 0;
    8f7a:	8d 43 04 00 	mov	#0,	4(r13)	;r3 As==00
{
    y[2] = x[2];
    y[1] = x[1];
    y[0] = x[0];
    x[0] =
    x[1] =
    8f7e:	8d 43 02 00 	mov	#0,	2(r13)	;r3 As==00
static __inline__ void transfer48(int16_t y[3], int16_t x[3])
{
    y[2] = x[2];
    y[1] = x[1];
    y[0] = x[0];
    x[0] =
    8f82:	8d 43 00 00 	mov	#0,	0(r13)	;r3 As==00
    x[1] =
    x[2] = 0;
}
    8f86:	30 41       	ret			

00008f88 <assign48>:
    \param y A pointer to the destination 48 bit value.
    \param x A pointer to the source 48 bit value.
 */
static __inline__ void assign48(int16_t y[3], const int16_t x[3])
{
    y[2] = x[2];
    8f88:	9c 4d 04 00 	mov	4(r13),	4(r12)	;
    8f8c:	04 00 
    y[1] = x[1];
    8f8e:	9c 4d 02 00 	mov	2(r13),	2(r12)	;
    8f92:	02 00 
    y[0] = x[0];
    8f94:	ac 4d 00 00 	mov	@r13,	0(r12)	;
}
    8f98:	30 41       	ret			

00008f9a <clear48>:
    interrupts are already disabled.
    \param z A pointer to the 48 bit accumulator.
 */
static __inline__ void clear48(int16_t z[3])
{
    z[2] = 0;
    8f9a:	8c 43 04 00 	mov	#0,	4(r12)	;r3 As==00
    z[1] = 0;
    8f9e:	8c 43 02 00 	mov	#0,	2(r12)	;r3 As==00
    z[0] = 0;
    8fa2:	8c 43 00 00 	mov	#0,	0(r12)	;r3 As==00
}
    8fa6:	30 41       	ret			

00008fa8 <accum48>:
    /* Accumulate a 32 bit integer value into a 48 bit one represented
       by a 3 element int16_t array */
#if defined(__MSP430__)  &&  defined(__GNUC__)
    int16_t y_ex;

    __asm__ __volatile__ (
    8fa8:	0f 43       	clr	r15		;
    8faa:	0f 4e       	mov	r14,	r15	;
    8fac:	0f 5f       	rla	r15		;
    8fae:	0f 7f       	subc	r15,	r15	;
    8fb0:	3f e3       	inv	r15		;
    8fb2:	8c 5d 00 00 	add	r13,	0(r12)	;
    8fb6:	8c 6e 02 00 	addc	r14,	2(r12)	;
    8fba:	8c 6f 04 00 	addc	r15,	4(r12)	;
    acc >>= 16;
    x[1] = acc;
    acc >>= 16;
    x[2] = acc;
#endif
}
    8fbe:	30 41       	ret			

00008fc0 <brief_pause>:
#endif

static void __inline__ brief_pause(unsigned int n)
{
    while (n > 0)
    8fc0:	0c 93       	cmp	#0,	r12	;r3 As==00
    8fc2:	04 24       	jz	$+10     	;abs 0x8fcc
    {
        n--;
    8fc4:	3c 53       	add	#-1,	r12	;r3 As==11
        __no_operation();
    8fc6:	03 43       	nop			
}
#endif

static void __inline__ brief_pause(unsigned int n)
{
    while (n > 0)
    8fc8:	0c 93       	cmp	#0,	r12	;r3 As==00
    8fca:	fc 23       	jnz	$-6      	;abs 0x8fc4
    {
        n--;
        __no_operation();
    }
}
    8fcc:	30 41       	ret			

00008fce <restart_watchdog>:

static void __inline__ restart_watchdog(void)
{
#if defined(__MSP430__)
    WDTCTL = (WDTCTL & 0xFF) | WDTPW | WDTCNTCL;
    8fce:	1c 42 20 01 	mov	&0x0120,r12	;0x0120
    8fd2:	3c f0 ff 00 	and	#255,	r12	;#0x00ff
    8fd6:	3c d0 08 5a 	bis	#23048,	r12	;#0x5a08
    8fda:	82 4c 20 01 	mov	r12,	&0x0120	;
#endif
}
    8fde:	30 41       	ret			

00008fe0 <isqrt32i>:

#include <inttypes.h>
#include "emeter-toolkit.h"

uint16_t isqrt32i(uint32_t h)
{
    8fe0:	0a 12       	push	r10		;
    uint32_t res32;
    uint16_t res16;

    res32 = isqrt32(h);
    8fe2:	b0 12 8e 8e 	call	#36494		;#0x8e8e
    8fe6:	0a 4c       	mov	r12,	r10	;
    res16 = res32 >> 16;
    8fe8:	3e 40 10 00 	mov	#16,	r14	;#0x0010
    8fec:	b0 12 0e d3 	call	#54030		;#0xd30e
    if (res32 & 0x8000LLU)
    8ff0:	0a 93       	cmp	#0,	r10	;r3 As==00
    8ff2:	06 34       	jge	$+14     	;abs 0x9000
    {
        if (res16 != 0xFFFFLU)
    8ff4:	3c 93       	cmp	#-1,	r12	;r3 As==11
    8ff6:	03 24       	jz	$+8      	;abs 0x8ffe
            return res16 + 1;
    8ff8:	1c 53       	inc	r12		;
    8ffa:	30 40 00 90 	br	#0x9000		;
    }
    return res16;
    8ffe:	3c 43       	mov	#-1,	r12	;r3 As==11
}
    9000:	3a 41       	pop	r10		;
    9002:	30 41       	ret			

00009004 <int48_to_64>:
    use where interrupt code could not see a half completed operation.
    \param y The destination 64 bit value, which is zeroed
    \param x A pointer to the source 48 bit value.
 */
static __inline__ int64_t int48_to_64(int16_t x[3])
{
    9004:	0a 12       	push	r10		;
    9006:	09 12       	push	r9		;
    9008:	08 12       	push	r8		;
    900a:	21 83       	decd	r1		;
    900c:	0a 4c       	mov	r12,	r10	;
    int64_t y;

    y = x[2];
    900e:	18 4c 04 00 	mov	4(r12),	r8	;
    9012:	0c 48       	mov	r8,	r12	;
    9014:	b0 12 ec d1 	call	#53740		;#0xd1ec
    9018:	0f 4c       	mov	r12,	r15	;
    y <<= 16;
    901a:	39 40 14 cd 	mov	#52500,	r9	;#0xcd14
    901e:	b1 40 10 00 	mov	#16,	0(r1)	;#0x0010
    9022:	00 00 
    9024:	0c 48       	mov	r8,	r12	;
    9026:	0d 4f       	mov	r15,	r13	;
    9028:	0e 4f       	mov	r15,	r14	;
    902a:	89 12       	call	r9		;
    y |= (uint16_t) x[1];
    902c:	1c da 02 00 	bis	2(r10),	r12	;
    y <<= 16;
    9030:	89 12       	call	r9		;
    y |= (uint16_t) x[0];
    return  y;
}
    9032:	2c da       	bis	@r10,	r12	;
    9034:	21 53       	incd	r1		;
    9036:	30 40 70 d1 	br	#0xd170		;

0000903a <int64_to_48>:
    use where interrupt code could not see a half completed operation.
    \param y A pointer to the destination 48 bit value.
    \param x The source 64 bit value, which is zeroed
 */
static __inline__ void int64_to_48(int16_t y[3], int64_t x)
{
    903a:	0a 12       	push	r10		;
    903c:	09 12       	push	r9		;
    903e:	08 12       	push	r8		;
    9040:	07 12       	push	r7		;
    9042:	06 12       	push	r6		;
    9044:	05 12       	push	r5		;
    9046:	21 83       	decd	r1		;
    9048:	0a 4c       	mov	r12,	r10	;
    904a:	19 41 10 00 	mov	16(r1),	r9	;0x00010
    904e:	15 41 12 00 	mov	18(r1),	r5	;0x00012
    9052:	16 41 14 00 	mov	20(r1),	r6	;0x00014
    9056:	17 41 16 00 	mov	22(r1),	r7	;0x00016
    y[2] = x >> 32;
    905a:	38 40 90 cd 	mov	#52624,	r8	;#0xcd90
    905e:	b1 40 20 00 	mov	#32,	0(r1)	;#0x0020
    9062:	00 00 
    9064:	0c 49       	mov	r9,	r12	;
    9066:	0d 45       	mov	r5,	r13	;
    9068:	0e 46       	mov	r6,	r14	;
    906a:	0f 47       	mov	r7,	r15	;
    906c:	88 12       	call	r8		;
    906e:	8a 4c 04 00 	mov	r12,	4(r10)	;
    y[1] = x >> 16;
    9072:	b1 40 10 00 	mov	#16,	0(r1)	;#0x0010
    9076:	00 00 
    9078:	0c 49       	mov	r9,	r12	;
    907a:	0d 45       	mov	r5,	r13	;
    907c:	0e 46       	mov	r6,	r14	;
    907e:	0f 47       	mov	r7,	r15	;
    9080:	88 12       	call	r8		;
    9082:	8a 4c 02 00 	mov	r12,	2(r10)	;
    y[0] = x;
    9086:	8a 49 00 00 	mov	r9,	0(r10)	;
}
    908a:	21 53       	incd	r1		;
    908c:	30 40 6a d1 	br	#0xd16a		;

00009090 <transfer48>:
    \param y A pointer to the destination 48 bit value.
    \param x A pointer to the source 48 bit value, which is zeroed
 */
static __inline__ void transfer48(int16_t y[3], int16_t x[3])
{
    y[2] = x[2];
    9090:	9c 4d 04 00 	mov	4(r13),	4(r12)	;
    9094:	04 00 
    y[1] = x[1];
    9096:	9c 4d 02 00 	mov	2(r13),	2(r12)	;
    909a:	02 00 
    y[0] = x[0];
    909c:	ac 4d 00 00 	mov	@r13,	0(r12)	;
    x[0] =
    x[1] =
    x[2] = 0;
    90a0:	8d 43 04 00 	mov	#0,	4(r13)	;r3 As==00
{
    y[2] = x[2];
    y[1] = x[1];
    y[0] = x[0];
    x[0] =
    x[1] =
    90a4:	8d 43 02 00 	mov	#0,	2(r13)	;r3 As==00
static __inline__ void transfer48(int16_t y[3], int16_t x[3])
{
    y[2] = x[2];
    y[1] = x[1];
    y[0] = x[0];
    x[0] =
    90a8:	8d 43 00 00 	mov	#0,	0(r13)	;r3 As==00
    x[1] =
    x[2] = 0;
}
    90ac:	30 41       	ret			

000090ae <assign48>:
    \param y A pointer to the destination 48 bit value.
    \param x A pointer to the source 48 bit value.
 */
static __inline__ void assign48(int16_t y[3], const int16_t x[3])
{
    y[2] = x[2];
    90ae:	9c 4d 04 00 	mov	4(r13),	4(r12)	;
    90b2:	04 00 
    y[1] = x[1];
    90b4:	9c 4d 02 00 	mov	2(r13),	2(r12)	;
    90b8:	02 00 
    y[0] = x[0];
    90ba:	ac 4d 00 00 	mov	@r13,	0(r12)	;
}
    90be:	30 41       	ret			

000090c0 <clear48>:
    interrupts are already disabled.
    \param z A pointer to the 48 bit accumulator.
 */
static __inline__ void clear48(int16_t z[3])
{
    z[2] = 0;
    90c0:	8c 43 04 00 	mov	#0,	4(r12)	;r3 As==00
    z[1] = 0;
    90c4:	8c 43 02 00 	mov	#0,	2(r12)	;r3 As==00
    z[0] = 0;
    90c8:	8c 43 00 00 	mov	#0,	0(r12)	;r3 As==00
}
    90cc:	30 41       	ret			

000090ce <accum48>:
    /* Accumulate a 32 bit integer value into a 48 bit one represented
       by a 3 element int16_t array */
#if defined(__MSP430__)  &&  defined(__GNUC__)
    int16_t y_ex;

    __asm__ __volatile__ (
    90ce:	0f 43       	clr	r15		;
    90d0:	0f 4e       	mov	r14,	r15	;
    90d2:	0f 5f       	rla	r15		;
    90d4:	0f 7f       	subc	r15,	r15	;
    90d6:	3f e3       	inv	r15		;
    90d8:	8c 5d 00 00 	add	r13,	0(r12)	;
    90dc:	8c 6e 02 00 	addc	r14,	2(r12)	;
    90e0:	8c 6f 04 00 	addc	r15,	4(r12)	;
    acc >>= 16;
    x[1] = acc;
    acc >>= 16;
    x[2] = acc;
#endif
}
    90e4:	30 41       	ret			

000090e6 <brief_pause>:
#endif

static void __inline__ brief_pause(unsigned int n)
{
    while (n > 0)
    90e6:	0c 93       	cmp	#0,	r12	;r3 As==00
    90e8:	04 24       	jz	$+10     	;abs 0x90f2
    {
        n--;
    90ea:	3c 53       	add	#-1,	r12	;r3 As==11
        __no_operation();
    90ec:	03 43       	nop			
}
#endif

static void __inline__ brief_pause(unsigned int n)
{
    while (n > 0)
    90ee:	0c 93       	cmp	#0,	r12	;r3 As==00
    90f0:	fc 23       	jnz	$-6      	;abs 0x90ea
    {
        n--;
        __no_operation();
    }
}
    90f2:	30 41       	ret			

000090f4 <restart_watchdog>:

static void __inline__ restart_watchdog(void)
{
#if defined(__MSP430__)
    WDTCTL = (WDTCTL & 0xFF) | WDTPW | WDTCNTCL;
    90f4:	1c 42 20 01 	mov	&0x0120,r12	;0x0120
    90f8:	3c f0 ff 00 	and	#255,	r12	;#0x00ff
    90fc:	3c d0 08 5a 	bis	#23048,	r12	;#0x5a08
    9100:	82 4c 20 01 	mov	r12,	&0x0120	;
#endif
}
    9104:	30 41       	ret			

00009106 <isqrt64>:
#include <inttypes.h>
#include "emeter-toolkit.h"

#if defined(EMETER_TOOLKIT_SUPPORT_64BIT)
uint64_t isqrt64(uint64_t h)
{
    9106:	0a 12       	push	r10		;
    9108:	09 12       	push	r9		;
    910a:	08 12       	push	r8		;
    910c:	07 12       	push	r7		;
    910e:	06 12       	push	r6		;
    9110:	05 12       	push	r5		;
    9112:	04 12       	push	r4		;
    9114:	31 80 16 00 	sub	#22,	r1	;#0x0016
    9118:	0b 4c       	mov	r12,	r11	;
    911a:	81 4d 00 00 	mov	r13,	0(r1)	;
    911e:	81 4e 06 00 	mov	r14,	6(r1)	;
    9122:	81 4f 08 00 	mov	r15,	8(r1)	;
    9126:	b1 40 40 00 	mov	#64,	20(r1)	;#0x0040, 0x0014
    912a:	14 00 
//        " jne   1b \n"
//        : [x] "+r"(x), [y] "+r"(y)
//        : [h] "r"(h), [i] "r"(i));
//#else
    x =
    y = 0;
    912c:	07 43       	clr	r7		;
    912e:	81 47 04 00 	mov	r7,	4(r1)	;
//        " dec   %[i] \n"
//        " jne   1b \n"
//        : [x] "+r"(x), [y] "+r"(y)
//        : [h] "r"(h), [i] "r"(i));
//#else
    x =
    9132:	81 47 0c 00 	mov	r7,	12(r1)	; 0x000c
    9136:	81 47 0e 00 	mov	r7,	14(r1)	; 0x000e
    913a:	81 47 10 00 	mov	r7,	16(r1)	; 0x0010
    913e:	81 47 12 00 	mov	r7,	18(r1)	; 0x0012
    y = 0;
    for (i = 0;  i < 64;  i++)
    {
        x = (x << 1) | 1;
    9142:	15 43       	mov	#1,	r5	;r3 As==01
    9144:	06 47       	mov	r7,	r6	;
        if (y < x)
            x -= 2;
    9146:	81 47 02 00 	mov	r7,	2(r1)	;
    914a:	81 4b 0a 00 	mov	r11,	10(r1)	; 0x000a
    914e:	0b 47       	mov	r7,	r11	;
//#else
    x =
    y = 0;
    for (i = 0;  i < 64;  i++)
    {
        x = (x << 1) | 1;
    9150:	1d 41 0c 00 	mov	12(r1),	r13	;0x0000c
    9154:	0d 5d       	rla	r13		;
    9156:	0c 45       	mov	r5,	r12	;
    9158:	1d 91 0c 00 	cmp	12(r1),	r13	;0x0000c
    915c:	01 28       	jnc	$+4      	;abs 0x9160
    915e:	0c 46       	mov	r6,	r12	;
    9160:	1e 41 0e 00 	mov	14(r1),	r14	;0x0000e
    9164:	0e 5e       	rla	r14		;
    9166:	09 45       	mov	r5,	r9	;
    9168:	1e 91 0e 00 	cmp	14(r1),	r14	;0x0000e
    916c:	01 28       	jnc	$+4      	;abs 0x9170
    916e:	09 46       	mov	r6,	r9	;
    9170:	0c 5e       	add	r14,	r12	;
    9172:	0f 45       	mov	r5,	r15	;
    9174:	0c 9e       	cmp	r14,	r12	;
    9176:	01 28       	jnc	$+4      	;abs 0x917a
    9178:	0f 46       	mov	r6,	r15	;
    917a:	09 df       	bis	r15,	r9	;
    917c:	1e 41 10 00 	mov	16(r1),	r14	;0x00010
    9180:	0e 5e       	rla	r14		;
    9182:	0a 45       	mov	r5,	r10	;
    9184:	1e 91 10 00 	cmp	16(r1),	r14	;0x00010
    9188:	01 28       	jnc	$+4      	;abs 0x918c
    918a:	0a 46       	mov	r6,	r10	;
    918c:	09 5e       	add	r14,	r9	;
    918e:	0f 45       	mov	r5,	r15	;
    9190:	09 9e       	cmp	r14,	r9	;
    9192:	01 28       	jnc	$+4      	;abs 0x9196
    9194:	0f 46       	mov	r6,	r15	;
    9196:	0a df       	bis	r15,	r10	;
    9198:	1f 41 12 00 	mov	18(r1),	r15	;0x00012
    919c:	0f 5f       	rla	r15		;
    919e:	0f 5a       	add	r10,	r15	;
    91a0:	1d d3       	bis	#1,	r13	;r3 As==01
    91a2:	0a 49       	mov	r9,	r10	;
    91a4:	0e 4f       	mov	r15,	r14	;
        if (y < x)
    91a6:	81 9f 04 00 	cmp	r15,	4(r1)	;
    91aa:	0f 28       	jnc	$+32     	;abs 0x91ca
    91ac:	1f 91 04 00 	cmp	4(r1),	r15	;
    91b0:	32 20       	jnz	$+102    	;abs 0x9216
    91b2:	81 99 02 00 	cmp	r9,	2(r1)	;
    91b6:	09 28       	jnc	$+20     	;abs 0x91ca
    91b8:	19 91 02 00 	cmp	2(r1),	r9	;
    91bc:	2c 20       	jnz	$+90     	;abs 0x9216
    91be:	0b 9c       	cmp	r12,	r11	;
    91c0:	04 28       	jnc	$+10     	;abs 0x91ca
    91c2:	0c 9b       	cmp	r11,	r12	;
    91c4:	28 20       	jnz	$+82     	;abs 0x9216
    91c6:	07 9d       	cmp	r13,	r7	;
    91c8:	26 2c       	jc	$+78     	;abs 0x9216
            x -= 2;
    91ca:	08 4d       	mov	r13,	r8	;
    91cc:	38 50 fe ff 	add	#65534,	r8	;#0xfffe
    91d0:	0e 45       	mov	r5,	r14	;
    91d2:	08 9d       	cmp	r13,	r8	;
    91d4:	01 28       	jnc	$+4      	;abs 0x91d8
    91d6:	0e 46       	mov	r6,	r14	;
    91d8:	04 4c       	mov	r12,	r4	;
    91da:	34 53       	add	#-1,	r4	;r3 As==11
    91dc:	0d 45       	mov	r5,	r13	;
    91de:	04 9c       	cmp	r12,	r4	;
    91e0:	01 28       	jnc	$+4      	;abs 0x91e4
    91e2:	0d 46       	mov	r6,	r13	;
    91e4:	0c 4e       	mov	r14,	r12	;
    91e6:	0c 54       	add	r4,	r12	;
    91e8:	0e 45       	mov	r5,	r14	;
    91ea:	0c 94       	cmp	r4,	r12	;
    91ec:	01 28       	jnc	$+4      	;abs 0x91f0
    91ee:	0e 46       	mov	r6,	r14	;
    91f0:	0d de       	bis	r14,	r13	;
    91f2:	39 53       	add	#-1,	r9	;r3 As==11
    91f4:	04 45       	mov	r5,	r4	;
    91f6:	09 9a       	cmp	r10,	r9	;
    91f8:	01 28       	jnc	$+4      	;abs 0x91fc
    91fa:	04 46       	mov	r6,	r4	;
    91fc:	0a 4d       	mov	r13,	r10	;
    91fe:	0a 59       	add	r9,	r10	;
    9200:	0d 45       	mov	r5,	r13	;
    9202:	0a 99       	cmp	r9,	r10	;
    9204:	01 28       	jnc	$+4      	;abs 0x9208
    9206:	0d 46       	mov	r6,	r13	;
    9208:	04 dd       	bis	r13,	r4	;
    920a:	0e 4f       	mov	r15,	r14	;
    920c:	3e 53       	add	#-1,	r14	;r3 As==11
    920e:	0d 48       	mov	r8,	r13	;
    9210:	0e 54       	add	r4,	r14	;
    9212:	30 40 72 92 	br	#0x9272		;
        else
            y -= x;
    9216:	08 47       	mov	r7,	r8	;
    9218:	08 8d       	sub	r13,	r8	;
    921a:	81 48 0c 00 	mov	r8,	12(r1)	; 0x000c
    921e:	04 45       	mov	r5,	r4	;
    9220:	07 98       	cmp	r8,	r7	;
    9222:	01 28       	jnc	$+4      	;abs 0x9226
    9224:	04 46       	mov	r6,	r4	;
    9226:	07 4b       	mov	r11,	r7	;
    9228:	07 8c       	sub	r12,	r7	;
    922a:	08 45       	mov	r5,	r8	;
    922c:	0b 97       	cmp	r7,	r11	;
    922e:	01 28       	jnc	$+4      	;abs 0x9232
    9230:	08 46       	mov	r6,	r8	;
    9232:	0b 47       	mov	r7,	r11	;
    9234:	0b 84       	sub	r4,	r11	;
    9236:	04 45       	mov	r5,	r4	;
    9238:	07 9b       	cmp	r11,	r7	;
    923a:	01 28       	jnc	$+4      	;abs 0x923e
    923c:	04 46       	mov	r6,	r4	;
    923e:	08 d4       	bis	r4,	r8	;
    9240:	17 41 02 00 	mov	2(r1),	r7	;
    9244:	07 89       	sub	r9,	r7	;
    9246:	09 45       	mov	r5,	r9	;
    9248:	81 97 02 00 	cmp	r7,	2(r1)	;
    924c:	01 28       	jnc	$+4      	;abs 0x9250
    924e:	09 46       	mov	r6,	r9	;
    9250:	04 47       	mov	r7,	r4	;
    9252:	04 88       	sub	r8,	r4	;
    9254:	08 45       	mov	r5,	r8	;
    9256:	07 94       	cmp	r4,	r7	;
    9258:	01 28       	jnc	$+4      	;abs 0x925c
    925a:	08 46       	mov	r6,	r8	;
    925c:	09 d8       	bis	r8,	r9	;
    925e:	18 41 04 00 	mov	4(r1),	r8	;
    9262:	08 8f       	sub	r15,	r8	;
    9264:	17 41 0c 00 	mov	12(r1),	r7	;0x0000c
    9268:	81 44 02 00 	mov	r4,	2(r1)	;
    926c:	08 89       	sub	r9,	r8	;
    926e:	81 48 04 00 	mov	r8,	4(r1)	;
        x++;
    9272:	09 4d       	mov	r13,	r9	;
    9274:	09 55       	add	r5,	r9	;
    9276:	0f 45       	mov	r5,	r15	;
    9278:	09 9d       	cmp	r13,	r9	;
    927a:	01 28       	jnc	$+4      	;abs 0x927e
    927c:	0f 46       	mov	r6,	r15	;
    927e:	08 4c       	mov	r12,	r8	;
    9280:	0d 45       	mov	r5,	r13	;
    9282:	0c 9c       	cmp	r12,	r12	;
    9284:	01 28       	jnc	$+4      	;abs 0x9288
    9286:	0d 46       	mov	r6,	r13	;
    9288:	0f 58       	add	r8,	r15	;
    928a:	0c 45       	mov	r5,	r12	;
    928c:	0f 98       	cmp	r8,	r15	;
    928e:	01 28       	jnc	$+4      	;abs 0x9292
    9290:	0c 46       	mov	r6,	r12	;
    9292:	0d dc       	bis	r12,	r13	;
    9294:	08 4a       	mov	r10,	r8	;
    9296:	0c 45       	mov	r5,	r12	;
    9298:	0a 9a       	cmp	r10,	r10	;
    929a:	01 28       	jnc	$+4      	;abs 0x929e
    929c:	0c 46       	mov	r6,	r12	;
    929e:	0d 58       	add	r8,	r13	;
    92a0:	0a 45       	mov	r5,	r10	;
    92a2:	0d 98       	cmp	r8,	r13	;
    92a4:	01 28       	jnc	$+4      	;abs 0x92a8
    92a6:	0a 46       	mov	r6,	r10	;
    92a8:	0c da       	bis	r10,	r12	;
    92aa:	81 49 0c 00 	mov	r9,	12(r1)	; 0x000c
    92ae:	81 4f 0e 00 	mov	r15,	14(r1)	; 0x000e
    92b2:	81 4d 10 00 	mov	r13,	16(r1)	; 0x0010
    92b6:	0c 5e       	add	r14,	r12	;
    92b8:	81 4c 12 00 	mov	r12,	18(r1)	; 0x0012
        y <<= 1;
    92bc:	0c 47       	mov	r7,	r12	;
    92be:	0c 57       	add	r7,	r12	;
    92c0:	0d 45       	mov	r5,	r13	;
    92c2:	0c 97       	cmp	r7,	r12	;
    92c4:	01 28       	jnc	$+4      	;abs 0x92c8
    92c6:	0d 46       	mov	r6,	r13	;
    92c8:	0e 4b       	mov	r11,	r14	;
    92ca:	0e 5b       	add	r11,	r14	;
    92cc:	0a 45       	mov	r5,	r10	;
    92ce:	0e 9b       	cmp	r11,	r14	;
    92d0:	01 28       	jnc	$+4      	;abs 0x92d4
    92d2:	0a 46       	mov	r6,	r10	;
    92d4:	0d 5e       	add	r14,	r13	;
    92d6:	0f 45       	mov	r5,	r15	;
    92d8:	0d 9e       	cmp	r14,	r13	;
    92da:	01 28       	jnc	$+4      	;abs 0x92de
    92dc:	0f 46       	mov	r6,	r15	;
    92de:	0a df       	bis	r15,	r10	;
    92e0:	1f 41 02 00 	mov	2(r1),	r15	;
    92e4:	0f 5f       	rla	r15		;
    92e6:	0e 45       	mov	r5,	r14	;
    92e8:	1f 91 02 00 	cmp	2(r1),	r15	;
    92ec:	01 28       	jnc	$+4      	;abs 0x92f0
    92ee:	0e 46       	mov	r6,	r14	;
    92f0:	0a 5f       	add	r15,	r10	;
    92f2:	09 45       	mov	r5,	r9	;
    92f4:	0a 9f       	cmp	r15,	r10	;
    92f6:	01 28       	jnc	$+4      	;abs 0x92fa
    92f8:	09 46       	mov	r6,	r9	;
    92fa:	0e d9       	bis	r9,	r14	;
    92fc:	18 41 04 00 	mov	4(r1),	r8	;
    9300:	08 58       	rla	r8		;
    9302:	09 4e       	mov	r14,	r9	;
    9304:	09 58       	add	r8,	r9	;
    9306:	0f 4c       	mov	r12,	r15	;
    9308:	08 4d       	mov	r13,	r8	;
    930a:	0b 4a       	mov	r10,	r11	;
    930c:	0e 49       	mov	r9,	r14	;
        if ((h & 0x8000000000000000ULL))
    930e:	81 93 08 00 	cmp	#0,	8(r1)	;r3 As==00
    9312:	01 34       	jge	$+4      	;abs 0x9316
            y |= 1;
    9314:	1f d3       	bis	#1,	r15	;r3 As==01
        h <<= 1;
    9316:	1a 41 0a 00 	mov	10(r1),	r10	;0x0000a
    931a:	0a 5a       	rla	r10		;
    931c:	0d 45       	mov	r5,	r13	;
    931e:	1a 91 0a 00 	cmp	10(r1),	r10	;0x0000a
    9322:	01 28       	jnc	$+4      	;abs 0x9326
    9324:	0d 46       	mov	r6,	r13	;
    9326:	29 41       	mov	@r1,	r9	;
    9328:	09 59       	rla	r9		;
    932a:	0c 45       	mov	r5,	r12	;
    932c:	29 91       	cmp	@r1,	r9	;
    932e:	01 28       	jnc	$+4      	;abs 0x9332
    9330:	0c 46       	mov	r6,	r12	;
    9332:	0d 59       	add	r9,	r13	;
    9334:	07 45       	mov	r5,	r7	;
    9336:	0d 99       	cmp	r9,	r13	;
    9338:	01 28       	jnc	$+4      	;abs 0x933c
    933a:	07 46       	mov	r6,	r7	;
    933c:	0c d7       	bis	r7,	r12	;
    933e:	17 41 06 00 	mov	6(r1),	r7	;
    9342:	07 57       	rla	r7		;
    9344:	09 45       	mov	r5,	r9	;
    9346:	17 91 06 00 	cmp	6(r1),	r7	;
    934a:	01 28       	jnc	$+4      	;abs 0x934e
    934c:	09 46       	mov	r6,	r9	;
    934e:	0c 57       	add	r7,	r12	;
    9350:	04 45       	mov	r5,	r4	;
    9352:	0c 97       	cmp	r7,	r12	;
    9354:	01 28       	jnc	$+4      	;abs 0x9358
    9356:	04 46       	mov	r6,	r4	;
    9358:	09 d4       	bis	r4,	r9	;
    935a:	17 41 08 00 	mov	8(r1),	r7	;
    935e:	07 57       	rla	r7		;
    9360:	04 49       	mov	r9,	r4	;
    9362:	04 57       	add	r7,	r4	;
    9364:	81 4a 06 00 	mov	r10,	6(r1)	;
    9368:	81 4c 08 00 	mov	r12,	8(r1)	;
    936c:	81 44 0a 00 	mov	r4,	10(r1)	; 0x000a
        y <<= 1;
    9370:	09 4f       	mov	r15,	r9	;
    9372:	09 5f       	add	r15,	r9	;
    9374:	81 49 00 00 	mov	r9,	0(r1)	;
    9378:	09 45       	mov	r5,	r9	;
    937a:	81 9f 00 00 	cmp	r15,	0(r1)	;
    937e:	01 28       	jnc	$+4      	;abs 0x9382
    9380:	09 46       	mov	r6,	r9	;
    9382:	07 48       	mov	r8,	r7	;
    9384:	07 58       	add	r8,	r7	;
    9386:	0f 45       	mov	r5,	r15	;
    9388:	07 98       	cmp	r8,	r7	;
    938a:	01 28       	jnc	$+4      	;abs 0x938e
    938c:	0f 46       	mov	r6,	r15	;
    938e:	09 57       	add	r7,	r9	;
    9390:	08 45       	mov	r5,	r8	;
    9392:	09 97       	cmp	r7,	r9	;
    9394:	01 28       	jnc	$+4      	;abs 0x9398
    9396:	08 46       	mov	r6,	r8	;
    9398:	0f d8       	bis	r8,	r15	;
    939a:	07 4b       	mov	r11,	r7	;
    939c:	07 5b       	add	r11,	r7	;
    939e:	08 45       	mov	r5,	r8	;
    93a0:	07 9b       	cmp	r11,	r7	;
    93a2:	01 28       	jnc	$+4      	;abs 0x93a6
    93a4:	08 46       	mov	r6,	r8	;
    93a6:	0f 57       	add	r7,	r15	;
    93a8:	0b 45       	mov	r5,	r11	;
    93aa:	0f 97       	cmp	r7,	r15	;
    93ac:	01 28       	jnc	$+4      	;abs 0x93b0
    93ae:	0b 46       	mov	r6,	r11	;
    93b0:	08 db       	bis	r11,	r8	;
    93b2:	0e 5e       	rla	r14		;
    93b4:	0e 58       	add	r8,	r14	;
    93b6:	27 41       	mov	@r1,	r7	;
    93b8:	0b 49       	mov	r9,	r11	;
    93ba:	81 4f 02 00 	mov	r15,	2(r1)	;
    93be:	81 4e 04 00 	mov	r14,	4(r1)	;
        if ((h & 0x8000000000000000ULL))
    93c2:	81 93 0a 00 	cmp	#0,	10(r1)	;r3 As==00, 0x000a
    93c6:	01 34       	jge	$+4      	;abs 0x93ca
            y |= 1;
    93c8:	17 d3       	bis	#1,	r7	;r3 As==01
        h <<= 1;
    93ca:	0a 5a       	rla	r10		;
    93cc:	0f 45       	mov	r5,	r15	;
    93ce:	1a 91 06 00 	cmp	6(r1),	r10	;
    93d2:	01 28       	jnc	$+4      	;abs 0x93d6
    93d4:	0f 46       	mov	r6,	r15	;
    93d6:	09 4d       	mov	r13,	r9	;
    93d8:	09 5d       	add	r13,	r9	;
    93da:	0e 45       	mov	r5,	r14	;
    93dc:	09 9d       	cmp	r13,	r9	;
    93de:	01 28       	jnc	$+4      	;abs 0x93e2
    93e0:	0e 46       	mov	r6,	r14	;
    93e2:	0f 59       	add	r9,	r15	;
    93e4:	0d 45       	mov	r5,	r13	;
    93e6:	0f 99       	cmp	r9,	r15	;
    93e8:	01 28       	jnc	$+4      	;abs 0x93ec
    93ea:	0d 46       	mov	r6,	r13	;
    93ec:	0e dd       	bis	r13,	r14	;
    93ee:	0c 5c       	rla	r12		;
    93f0:	0d 45       	mov	r5,	r13	;
    93f2:	1c 91 08 00 	cmp	8(r1),	r12	;
    93f6:	01 28       	jnc	$+4      	;abs 0x93fa
    93f8:	0d 46       	mov	r6,	r13	;
    93fa:	0e 5c       	add	r12,	r14	;
    93fc:	09 45       	mov	r5,	r9	;
    93fe:	0e 9c       	cmp	r12,	r14	;
    9400:	01 28       	jnc	$+4      	;abs 0x9404
    9402:	09 46       	mov	r6,	r9	;
    9404:	0d d9       	bis	r9,	r13	;
    9406:	0c 44       	mov	r4,	r12	;
    9408:	0c 54       	add	r4,	r12	;
    940a:	81 4a 0a 00 	mov	r10,	10(r1)	; 0x000a
    940e:	81 4f 00 00 	mov	r15,	0(r1)	;
    9412:	81 4e 06 00 	mov	r14,	6(r1)	;
    9416:	0d 5c       	add	r12,	r13	;
    9418:	81 4d 08 00 	mov	r13,	8(r1)	;
    941c:	b1 53 14 00 	add	#-1,	20(r1)	;r3 As==11, 0x0014
//        : [x] "+r"(x), [y] "+r"(y)
//        : [h] "r"(h), [i] "r"(i));
//#else
    x =
    y = 0;
    for (i = 0;  i < 64;  i++)
    9420:	81 93 14 00 	cmp	#0,	20(r1)	;r3 As==00, 0x0014
    9424:	95 22       	jnz	$-724    	;abs 0x9150
            y |= 1;
        h <<= 1;
    }
//#endif
    return  x;
}
    9426:	1c 41 0c 00 	mov	12(r1),	r12	;0x0000c
    942a:	1d 41 0e 00 	mov	14(r1),	r13	;0x0000e
    942e:	1e 41 10 00 	mov	16(r1),	r14	;0x00010
    9432:	1f 41 12 00 	mov	18(r1),	r15	;0x00012
    9436:	31 50 16 00 	add	#22,	r1	;#0x0016
    943a:	30 40 68 d1 	br	#0xd168		;

0000943e <int48_to_64>:
    use where interrupt code could not see a half completed operation.
    \param y The destination 64 bit value, which is zeroed
    \param x A pointer to the source 48 bit value.
 */
static __inline__ int64_t int48_to_64(int16_t x[3])
{
    943e:	0a 12       	push	r10		;
    9440:	09 12       	push	r9		;
    9442:	08 12       	push	r8		;
    9444:	21 83       	decd	r1		;
    9446:	0a 4c       	mov	r12,	r10	;
    int64_t y;

    y = x[2];
    9448:	18 4c 04 00 	mov	4(r12),	r8	;
    944c:	0c 48       	mov	r8,	r12	;
    944e:	b0 12 ec d1 	call	#53740		;#0xd1ec
    9452:	0f 4c       	mov	r12,	r15	;
    y <<= 16;
    9454:	39 40 14 cd 	mov	#52500,	r9	;#0xcd14
    9458:	b1 40 10 00 	mov	#16,	0(r1)	;#0x0010
    945c:	00 00 
    945e:	0c 48       	mov	r8,	r12	;
    9460:	0d 4f       	mov	r15,	r13	;
    9462:	0e 4f       	mov	r15,	r14	;
    9464:	89 12       	call	r9		;
    y |= (uint16_t) x[1];
    9466:	1c da 02 00 	bis	2(r10),	r12	;
    y <<= 16;
    946a:	89 12       	call	r9		;
    y |= (uint16_t) x[0];
    return  y;
}
    946c:	2c da       	bis	@r10,	r12	;
    946e:	21 53       	incd	r1		;
    9470:	30 40 70 d1 	br	#0xd170		;

00009474 <int64_to_48>:
    use where interrupt code could not see a half completed operation.
    \param y A pointer to the destination 48 bit value.
    \param x The source 64 bit value, which is zeroed
 */
static __inline__ void int64_to_48(int16_t y[3], int64_t x)
{
    9474:	0a 12       	push	r10		;
    9476:	09 12       	push	r9		;
    9478:	08 12       	push	r8		;
    947a:	07 12       	push	r7		;
    947c:	06 12       	push	r6		;
    947e:	05 12       	push	r5		;
    9480:	21 83       	decd	r1		;
    9482:	0a 4c       	mov	r12,	r10	;
    9484:	19 41 10 00 	mov	16(r1),	r9	;0x00010
    9488:	15 41 12 00 	mov	18(r1),	r5	;0x00012
    948c:	16 41 14 00 	mov	20(r1),	r6	;0x00014
    9490:	17 41 16 00 	mov	22(r1),	r7	;0x00016
    y[2] = x >> 32;
    9494:	38 40 90 cd 	mov	#52624,	r8	;#0xcd90
    9498:	b1 40 20 00 	mov	#32,	0(r1)	;#0x0020
    949c:	00 00 
    949e:	0c 49       	mov	r9,	r12	;
    94a0:	0d 45       	mov	r5,	r13	;
    94a2:	0e 46       	mov	r6,	r14	;
    94a4:	0f 47       	mov	r7,	r15	;
    94a6:	88 12       	call	r8		;
    94a8:	8a 4c 04 00 	mov	r12,	4(r10)	;
    y[1] = x >> 16;
    94ac:	b1 40 10 00 	mov	#16,	0(r1)	;#0x0010
    94b0:	00 00 
    94b2:	0c 49       	mov	r9,	r12	;
    94b4:	0d 45       	mov	r5,	r13	;
    94b6:	0e 46       	mov	r6,	r14	;
    94b8:	0f 47       	mov	r7,	r15	;
    94ba:	88 12       	call	r8		;
    94bc:	8a 4c 02 00 	mov	r12,	2(r10)	;
    y[0] = x;
    94c0:	8a 49 00 00 	mov	r9,	0(r10)	;
}
    94c4:	21 53       	incd	r1		;
    94c6:	30 40 6a d1 	br	#0xd16a		;

000094ca <transfer48>:
    \param y A pointer to the destination 48 bit value.
    \param x A pointer to the source 48 bit value, which is zeroed
 */
static __inline__ void transfer48(int16_t y[3], int16_t x[3])
{
    y[2] = x[2];
    94ca:	9c 4d 04 00 	mov	4(r13),	4(r12)	;
    94ce:	04 00 
    y[1] = x[1];
    94d0:	9c 4d 02 00 	mov	2(r13),	2(r12)	;
    94d4:	02 00 
    y[0] = x[0];
    94d6:	ac 4d 00 00 	mov	@r13,	0(r12)	;
    x[0] =
    x[1] =
    x[2] = 0;
    94da:	8d 43 04 00 	mov	#0,	4(r13)	;r3 As==00
{
    y[2] = x[2];
    y[1] = x[1];
    y[0] = x[0];
    x[0] =
    x[1] =
    94de:	8d 43 02 00 	mov	#0,	2(r13)	;r3 As==00
static __inline__ void transfer48(int16_t y[3], int16_t x[3])
{
    y[2] = x[2];
    y[1] = x[1];
    y[0] = x[0];
    x[0] =
    94e2:	8d 43 00 00 	mov	#0,	0(r13)	;r3 As==00
    x[1] =
    x[2] = 0;
}
    94e6:	30 41       	ret			

000094e8 <assign48>:
    \param y A pointer to the destination 48 bit value.
    \param x A pointer to the source 48 bit value.
 */
static __inline__ void assign48(int16_t y[3], const int16_t x[3])
{
    y[2] = x[2];
    94e8:	9c 4d 04 00 	mov	4(r13),	4(r12)	;
    94ec:	04 00 
    y[1] = x[1];
    94ee:	9c 4d 02 00 	mov	2(r13),	2(r12)	;
    94f2:	02 00 
    y[0] = x[0];
    94f4:	ac 4d 00 00 	mov	@r13,	0(r12)	;
}
    94f8:	30 41       	ret			

000094fa <clear48>:
    interrupts are already disabled.
    \param z A pointer to the 48 bit accumulator.
 */
static __inline__ void clear48(int16_t z[3])
{
    z[2] = 0;
    94fa:	8c 43 04 00 	mov	#0,	4(r12)	;r3 As==00
    z[1] = 0;
    94fe:	8c 43 02 00 	mov	#0,	2(r12)	;r3 As==00
    z[0] = 0;
    9502:	8c 43 00 00 	mov	#0,	0(r12)	;r3 As==00
}
    9506:	30 41       	ret			

00009508 <accum48>:
    /* Accumulate a 32 bit integer value into a 48 bit one represented
       by a 3 element int16_t array */
#if defined(__MSP430__)  &&  defined(__GNUC__)
    int16_t y_ex;

    __asm__ __volatile__ (
    9508:	0f 43       	clr	r15		;
    950a:	0f 4e       	mov	r14,	r15	;
    950c:	0f 5f       	rla	r15		;
    950e:	0f 7f       	subc	r15,	r15	;
    9510:	3f e3       	inv	r15		;
    9512:	8c 5d 00 00 	add	r13,	0(r12)	;
    9516:	8c 6e 02 00 	addc	r14,	2(r12)	;
    951a:	8c 6f 04 00 	addc	r15,	4(r12)	;
    acc >>= 16;
    x[1] = acc;
    acc >>= 16;
    x[2] = acc;
#endif
}
    951e:	30 41       	ret			

00009520 <brief_pause>:
#endif

static void __inline__ brief_pause(unsigned int n)
{
    while (n > 0)
    9520:	0c 93       	cmp	#0,	r12	;r3 As==00
    9522:	04 24       	jz	$+10     	;abs 0x952c
    {
        n--;
    9524:	3c 53       	add	#-1,	r12	;r3 As==11
        __no_operation();
    9526:	03 43       	nop			
}
#endif

static void __inline__ brief_pause(unsigned int n)
{
    while (n > 0)
    9528:	0c 93       	cmp	#0,	r12	;r3 As==00
    952a:	fc 23       	jnz	$-6      	;abs 0x9524
    {
        n--;
        __no_operation();
    }
}
    952c:	30 41       	ret			

0000952e <restart_watchdog>:

static void __inline__ restart_watchdog(void)
{
#if defined(__MSP430__)
    WDTCTL = (WDTCTL & 0xFF) | WDTPW | WDTCNTCL;
    952e:	1c 42 20 01 	mov	&0x0120,r12	;0x0120
    9532:	3c f0 ff 00 	and	#255,	r12	;#0x00ff
    9536:	3c d0 08 5a 	bis	#23048,	r12	;#0x5a08
    953a:	82 4c 20 01 	mov	r12,	&0x0120	;
#endif
}
    953e:	30 41       	ret			

00009540 <isqrt64i>:
#include <inttypes.h>
#include "emeter-toolkit.h"

#if defined(EMETER_TOOLKIT_SUPPORT_64BIT)
uint32_t isqrt64i(uint64_t h)
{
    9540:	0a 12       	push	r10		;
    9542:	21 83       	decd	r1		;
    uint64_t res64;
    uint32_t res32;

    res64 = isqrt64(h);
    9544:	b0 12 06 91 	call	#37126		;#0x9106
    9548:	0a 4d       	mov	r13,	r10	;
    res32 = res64 >> 32;
    954a:	b1 40 20 00 	mov	#32,	0(r1)	;#0x0020
    954e:	00 00 
    9550:	b0 12 98 cc 	call	#52376		;#0xcc98
    9554:	0e 4c       	mov	r12,	r14	;
    9556:	0f 4d       	mov	r13,	r15	;
    if (res64 & 0x80000000LLU)
    9558:	0a 93       	cmp	#0,	r10	;r3 As==00
    955a:	09 34       	jge	$+20     	;abs 0x956e
    {
        if (res32 != 0xFFFFFFFFLU)
    955c:	3e 93       	cmp	#-1,	r14	;r3 As==11
    955e:	02 20       	jnz	$+6      	;abs 0x9564
    9560:	3d 93       	cmp	#-1,	r13	;r3 As==11
    9562:	08 24       	jz	$+18     	;abs 0x9574
            return res32 + 1;
    9564:	1c 53       	inc	r12		;
    9566:	0d 4f       	mov	r15,	r13	;
    9568:	0d 63       	adc	r13		;
    956a:	30 40 78 95 	br	#0x9578		;
    }
    return res32;
    956e:	0c 4e       	mov	r14,	r12	;
    9570:	30 40 78 95 	br	#0x9578		;
    9574:	3c 43       	mov	#-1,	r12	;r3 As==11
    9576:	0d 4c       	mov	r12,	r13	;
}
    9578:	21 53       	incd	r1		;
    957a:	3a 41       	pop	r10		;
    957c:	30 41       	ret			

0000957e <int48_to_64>:
    use where interrupt code could not see a half completed operation.
    \param y The destination 64 bit value, which is zeroed
    \param x A pointer to the source 48 bit value.
 */
static __inline__ int64_t int48_to_64(int16_t x[3])
{
    957e:	0a 12       	push	r10		;
    9580:	09 12       	push	r9		;
    9582:	08 12       	push	r8		;
    9584:	21 83       	decd	r1		;
    9586:	0a 4c       	mov	r12,	r10	;
    int64_t y;

    y = x[2];
    9588:	18 4c 04 00 	mov	4(r12),	r8	;
    958c:	0c 48       	mov	r8,	r12	;
    958e:	b0 12 ec d1 	call	#53740		;#0xd1ec
    9592:	0f 4c       	mov	r12,	r15	;
    y <<= 16;
    9594:	39 40 14 cd 	mov	#52500,	r9	;#0xcd14
    9598:	b1 40 10 00 	mov	#16,	0(r1)	;#0x0010
    959c:	00 00 
    959e:	0c 48       	mov	r8,	r12	;
    95a0:	0d 4f       	mov	r15,	r13	;
    95a2:	0e 4f       	mov	r15,	r14	;
    95a4:	89 12       	call	r9		;
    y |= (uint16_t) x[1];
    95a6:	1c da 02 00 	bis	2(r10),	r12	;
    y <<= 16;
    95aa:	89 12       	call	r9		;
    y |= (uint16_t) x[0];
    return  y;
}
    95ac:	2c da       	bis	@r10,	r12	;
    95ae:	21 53       	incd	r1		;
    95b0:	30 40 70 d1 	br	#0xd170		;

000095b4 <int64_to_48>:
    use where interrupt code could not see a half completed operation.
    \param y A pointer to the destination 48 bit value.
    \param x The source 64 bit value, which is zeroed
 */
static __inline__ void int64_to_48(int16_t y[3], int64_t x)
{
    95b4:	0a 12       	push	r10		;
    95b6:	09 12       	push	r9		;
    95b8:	08 12       	push	r8		;
    95ba:	07 12       	push	r7		;
    95bc:	06 12       	push	r6		;
    95be:	05 12       	push	r5		;
    95c0:	21 83       	decd	r1		;
    95c2:	0a 4c       	mov	r12,	r10	;
    95c4:	19 41 10 00 	mov	16(r1),	r9	;0x00010
    95c8:	15 41 12 00 	mov	18(r1),	r5	;0x00012
    95cc:	16 41 14 00 	mov	20(r1),	r6	;0x00014
    95d0:	17 41 16 00 	mov	22(r1),	r7	;0x00016
    y[2] = x >> 32;
    95d4:	38 40 90 cd 	mov	#52624,	r8	;#0xcd90
    95d8:	b1 40 20 00 	mov	#32,	0(r1)	;#0x0020
    95dc:	00 00 
    95de:	0c 49       	mov	r9,	r12	;
    95e0:	0d 45       	mov	r5,	r13	;
    95e2:	0e 46       	mov	r6,	r14	;
    95e4:	0f 47       	mov	r7,	r15	;
    95e6:	88 12       	call	r8		;
    95e8:	8a 4c 04 00 	mov	r12,	4(r10)	;
    y[1] = x >> 16;
    95ec:	b1 40 10 00 	mov	#16,	0(r1)	;#0x0010
    95f0:	00 00 
    95f2:	0c 49       	mov	r9,	r12	;
    95f4:	0d 45       	mov	r5,	r13	;
    95f6:	0e 46       	mov	r6,	r14	;
    95f8:	0f 47       	mov	r7,	r15	;
    95fa:	88 12       	call	r8		;
    95fc:	8a 4c 02 00 	mov	r12,	2(r10)	;
    y[0] = x;
    9600:	8a 49 00 00 	mov	r9,	0(r10)	;
}
    9604:	21 53       	incd	r1		;
    9606:	30 40 6a d1 	br	#0xd16a		;

0000960a <transfer48>:
    \param y A pointer to the destination 48 bit value.
    \param x A pointer to the source 48 bit value, which is zeroed
 */
static __inline__ void transfer48(int16_t y[3], int16_t x[3])
{
    y[2] = x[2];
    960a:	9c 4d 04 00 	mov	4(r13),	4(r12)	;
    960e:	04 00 
    y[1] = x[1];
    9610:	9c 4d 02 00 	mov	2(r13),	2(r12)	;
    9614:	02 00 
    y[0] = x[0];
    9616:	ac 4d 00 00 	mov	@r13,	0(r12)	;
    x[0] =
    x[1] =
    x[2] = 0;
    961a:	8d 43 04 00 	mov	#0,	4(r13)	;r3 As==00
{
    y[2] = x[2];
    y[1] = x[1];
    y[0] = x[0];
    x[0] =
    x[1] =
    961e:	8d 43 02 00 	mov	#0,	2(r13)	;r3 As==00
static __inline__ void transfer48(int16_t y[3], int16_t x[3])
{
    y[2] = x[2];
    y[1] = x[1];
    y[0] = x[0];
    x[0] =
    9622:	8d 43 00 00 	mov	#0,	0(r13)	;r3 As==00
    x[1] =
    x[2] = 0;
}
    9626:	30 41       	ret			

00009628 <assign48>:
    \param y A pointer to the destination 48 bit value.
    \param x A pointer to the source 48 bit value.
 */
static __inline__ void assign48(int16_t y[3], const int16_t x[3])
{
    y[2] = x[2];
    9628:	9c 4d 04 00 	mov	4(r13),	4(r12)	;
    962c:	04 00 
    y[1] = x[1];
    962e:	9c 4d 02 00 	mov	2(r13),	2(r12)	;
    9632:	02 00 
    y[0] = x[0];
    9634:	ac 4d 00 00 	mov	@r13,	0(r12)	;
}
    9638:	30 41       	ret			

0000963a <clear48>:
    interrupts are already disabled.
    \param z A pointer to the 48 bit accumulator.
 */
static __inline__ void clear48(int16_t z[3])
{
    z[2] = 0;
    963a:	8c 43 04 00 	mov	#0,	4(r12)	;r3 As==00
    z[1] = 0;
    963e:	8c 43 02 00 	mov	#0,	2(r12)	;r3 As==00
    z[0] = 0;
    9642:	8c 43 00 00 	mov	#0,	0(r12)	;r3 As==00
}
    9646:	30 41       	ret			

00009648 <accum48>:
    /* Accumulate a 32 bit integer value into a 48 bit one represented
       by a 3 element int16_t array */
#if defined(__MSP430__)  &&  defined(__GNUC__)
    int16_t y_ex;

    __asm__ __volatile__ (
    9648:	0f 43       	clr	r15		;
    964a:	0f 4e       	mov	r14,	r15	;
    964c:	0f 5f       	rla	r15		;
    964e:	0f 7f       	subc	r15,	r15	;
    9650:	3f e3       	inv	r15		;
    9652:	8c 5d 00 00 	add	r13,	0(r12)	;
    9656:	8c 6e 02 00 	addc	r14,	2(r12)	;
    965a:	8c 6f 04 00 	addc	r15,	4(r12)	;
    acc >>= 16;
    x[1] = acc;
    acc >>= 16;
    x[2] = acc;
#endif
}
    965e:	30 41       	ret			

00009660 <brief_pause>:
#endif

static void __inline__ brief_pause(unsigned int n)
{
    while (n > 0)
    9660:	0c 93       	cmp	#0,	r12	;r3 As==00
    9662:	04 24       	jz	$+10     	;abs 0x966c
    {
        n--;
    9664:	3c 53       	add	#-1,	r12	;r3 As==11
        __no_operation();
    9666:	03 43       	nop			
}
#endif

static void __inline__ brief_pause(unsigned int n)
{
    while (n > 0)
    9668:	0c 93       	cmp	#0,	r12	;r3 As==00
    966a:	fc 23       	jnz	$-6      	;abs 0x9664
    {
        n--;
        __no_operation();
    }
}
    966c:	30 41       	ret			

0000966e <restart_watchdog>:

static void __inline__ restart_watchdog(void)
{
#if defined(__MSP430__)
    WDTCTL = (WDTCTL & 0xFF) | WDTPW | WDTCNTCL;
    966e:	1c 42 20 01 	mov	&0x0120,r12	;0x0120
    9672:	3c f0 ff 00 	and	#255,	r12	;#0x00ff
    9676:	3c d0 08 5a 	bis	#23048,	r12	;#0x5a08
    967a:	82 4c 20 01 	mov	r12,	&0x0120	;
#endif
}
    967e:	30 41       	ret			

00009680 <mac48>:
    /* Accumulate a 32 bit integer value into a 48 bit one represented
       by a 3 element int16_t array */
#if defined(__GNUC__)  &&  defined(__MSP430__)
    int16_t y_ex = 0;

    __asm__ __volatile__ (
    9680:	0e 43       	clr	r14		;
    9682:	0e 4e       	mov	r14,	r14	;
    9684:	0e 5e       	rla	r14		;
    9686:	0e 7e       	subc	r14,	r14	;
    9688:	3e e3       	inv	r14		;
    968a:	8c 5d 00 00 	add	r13,	0(r12)	;
    968e:	8c 6e 02 00 	addc	r14,	2(r12)	;
    9692:	8c 6e 04 00 	addc	r14,	4(r12)	;
    acc >>= 16;
    x[1] = acc;
    acc >>= 16;
    x[2] = acc;
#endif
}
    9696:	30 41       	ret			

00009698 <int48_to_64>:
    use where interrupt code could not see a half completed operation.
    \param y The destination 64 bit value, which is zeroed
    \param x A pointer to the source 48 bit value.
 */
static __inline__ int64_t int48_to_64(int16_t x[3])
{
    9698:	0a 12       	push	r10		;
    969a:	09 12       	push	r9		;
    969c:	08 12       	push	r8		;
    969e:	21 83       	decd	r1		;
    96a0:	0a 4c       	mov	r12,	r10	;
    int64_t y;

    y = x[2];
    96a2:	18 4c 04 00 	mov	4(r12),	r8	;
    96a6:	0c 48       	mov	r8,	r12	;
    96a8:	b0 12 ec d1 	call	#53740		;#0xd1ec
    96ac:	0f 4c       	mov	r12,	r15	;
    y <<= 16;
    96ae:	39 40 14 cd 	mov	#52500,	r9	;#0xcd14
    96b2:	b1 40 10 00 	mov	#16,	0(r1)	;#0x0010
    96b6:	00 00 
    96b8:	0c 48       	mov	r8,	r12	;
    96ba:	0d 4f       	mov	r15,	r13	;
    96bc:	0e 4f       	mov	r15,	r14	;
    96be:	89 12       	call	r9		;
    y |= (uint16_t) x[1];
    96c0:	1c da 02 00 	bis	2(r10),	r12	;
    y <<= 16;
    96c4:	89 12       	call	r9		;
    y |= (uint16_t) x[0];
    return  y;
}
    96c6:	2c da       	bis	@r10,	r12	;
    96c8:	21 53       	incd	r1		;
    96ca:	30 40 70 d1 	br	#0xd170		;

000096ce <int64_to_48>:
    use where interrupt code could not see a half completed operation.
    \param y A pointer to the destination 48 bit value.
    \param x The source 64 bit value, which is zeroed
 */
static __inline__ void int64_to_48(int16_t y[3], int64_t x)
{
    96ce:	0a 12       	push	r10		;
    96d0:	09 12       	push	r9		;
    96d2:	08 12       	push	r8		;
    96d4:	07 12       	push	r7		;
    96d6:	06 12       	push	r6		;
    96d8:	05 12       	push	r5		;
    96da:	21 83       	decd	r1		;
    96dc:	0a 4c       	mov	r12,	r10	;
    96de:	19 41 10 00 	mov	16(r1),	r9	;0x00010
    96e2:	15 41 12 00 	mov	18(r1),	r5	;0x00012
    96e6:	16 41 14 00 	mov	20(r1),	r6	;0x00014
    96ea:	17 41 16 00 	mov	22(r1),	r7	;0x00016
    y[2] = x >> 32;
    96ee:	38 40 90 cd 	mov	#52624,	r8	;#0xcd90
    96f2:	b1 40 20 00 	mov	#32,	0(r1)	;#0x0020
    96f6:	00 00 
    96f8:	0c 49       	mov	r9,	r12	;
    96fa:	0d 45       	mov	r5,	r13	;
    96fc:	0e 46       	mov	r6,	r14	;
    96fe:	0f 47       	mov	r7,	r15	;
    9700:	88 12       	call	r8		;
    9702:	8a 4c 04 00 	mov	r12,	4(r10)	;
    y[1] = x >> 16;
    9706:	b1 40 10 00 	mov	#16,	0(r1)	;#0x0010
    970a:	00 00 
    970c:	0c 49       	mov	r9,	r12	;
    970e:	0d 45       	mov	r5,	r13	;
    9710:	0e 46       	mov	r6,	r14	;
    9712:	0f 47       	mov	r7,	r15	;
    9714:	88 12       	call	r8		;
    9716:	8a 4c 02 00 	mov	r12,	2(r10)	;
    y[0] = x;
    971a:	8a 49 00 00 	mov	r9,	0(r10)	;
}
    971e:	21 53       	incd	r1		;
    9720:	30 40 6a d1 	br	#0xd16a		;

00009724 <transfer48>:
    \param y A pointer to the destination 48 bit value.
    \param x A pointer to the source 48 bit value, which is zeroed
 */
static __inline__ void transfer48(int16_t y[3], int16_t x[3])
{
    y[2] = x[2];
    9724:	9c 4d 04 00 	mov	4(r13),	4(r12)	;
    9728:	04 00 
    y[1] = x[1];
    972a:	9c 4d 02 00 	mov	2(r13),	2(r12)	;
    972e:	02 00 
    y[0] = x[0];
    9730:	ac 4d 00 00 	mov	@r13,	0(r12)	;
    x[0] =
    x[1] =
    x[2] = 0;
    9734:	8d 43 04 00 	mov	#0,	4(r13)	;r3 As==00
{
    y[2] = x[2];
    y[1] = x[1];
    y[0] = x[0];
    x[0] =
    x[1] =
    9738:	8d 43 02 00 	mov	#0,	2(r13)	;r3 As==00
static __inline__ void transfer48(int16_t y[3], int16_t x[3])
{
    y[2] = x[2];
    y[1] = x[1];
    y[0] = x[0];
    x[0] =
    973c:	8d 43 00 00 	mov	#0,	0(r13)	;r3 As==00
    x[1] =
    x[2] = 0;
}
    9740:	30 41       	ret			

00009742 <assign48>:
    \param y A pointer to the destination 48 bit value.
    \param x A pointer to the source 48 bit value.
 */
static __inline__ void assign48(int16_t y[3], const int16_t x[3])
{
    y[2] = x[2];
    9742:	9c 4d 04 00 	mov	4(r13),	4(r12)	;
    9746:	04 00 
    y[1] = x[1];
    9748:	9c 4d 02 00 	mov	2(r13),	2(r12)	;
    974c:	02 00 
    y[0] = x[0];
    974e:	ac 4d 00 00 	mov	@r13,	0(r12)	;
}
    9752:	30 41       	ret			

00009754 <clear48>:
    interrupts are already disabled.
    \param z A pointer to the 48 bit accumulator.
 */
static __inline__ void clear48(int16_t z[3])
{
    z[2] = 0;
    9754:	8c 43 04 00 	mov	#0,	4(r12)	;r3 As==00
    z[1] = 0;
    9758:	8c 43 02 00 	mov	#0,	2(r12)	;r3 As==00
    z[0] = 0;
    975c:	8c 43 00 00 	mov	#0,	0(r12)	;r3 As==00
}
    9760:	30 41       	ret			

00009762 <accum48>:
    /* Accumulate a 32 bit integer value into a 48 bit one represented
       by a 3 element int16_t array */
#if defined(__MSP430__)  &&  defined(__GNUC__)
    int16_t y_ex;

    __asm__ __volatile__ (
    9762:	0f 43       	clr	r15		;
    9764:	0f 4e       	mov	r14,	r15	;
    9766:	0f 5f       	rla	r15		;
    9768:	0f 7f       	subc	r15,	r15	;
    976a:	3f e3       	inv	r15		;
    976c:	8c 5d 00 00 	add	r13,	0(r12)	;
    9770:	8c 6e 02 00 	addc	r14,	2(r12)	;
    9774:	8c 6f 04 00 	addc	r15,	4(r12)	;
    acc >>= 16;
    x[1] = acc;
    acc >>= 16;
    x[2] = acc;
#endif
}
    9778:	30 41       	ret			

0000977a <brief_pause>:
#endif

static void __inline__ brief_pause(unsigned int n)
{
    while (n > 0)
    977a:	0c 93       	cmp	#0,	r12	;r3 As==00
    977c:	04 24       	jz	$+10     	;abs 0x9786
    {
        n--;
    977e:	3c 53       	add	#-1,	r12	;r3 As==11
        __no_operation();
    9780:	03 43       	nop			
}
#endif

static void __inline__ brief_pause(unsigned int n)
{
    while (n > 0)
    9782:	0c 93       	cmp	#0,	r12	;r3 As==00
    9784:	fc 23       	jnz	$-6      	;abs 0x977e
    {
        n--;
        __no_operation();
    }
}
    9786:	30 41       	ret			

00009788 <restart_watchdog>:

static void __inline__ restart_watchdog(void)
{
#if defined(__MSP430__)
    WDTCTL = (WDTCTL & 0xFF) | WDTPW | WDTCNTCL;
    9788:	1c 42 20 01 	mov	&0x0120,r12	;0x0120
    978c:	3c f0 ff 00 	and	#255,	r12	;#0x00ff
    9790:	3c d0 08 5a 	bis	#23048,	r12	;#0x5a08
    9794:	82 4c 20 01 	mov	r12,	&0x0120	;
#endif
}
    9798:	30 41       	ret			

0000979a <mac64_16_24>:

#include <inttypes.h>
#include "emeter-toolkit.h"

void mac64_16_24(int64_t *z, int16_t x, int32_t y)
{
    979a:	0a 12       	push	r10		;
    979c:	09 12       	push	r9		;
    979e:	08 12       	push	r8		;
    97a0:	07 12       	push	r7		;
    97a2:	06 12       	push	r6		;
    97a4:	05 12       	push	r5		;
    97a6:	04 12       	push	r4		;
    97a8:	07 4c       	mov	r12,	r7	;
    97aa:	08 4d       	mov	r13,	r8	;
    97ac:	0a 4e       	mov	r14,	r10	;
    97ae:	05 4f       	mov	r15,	r5	;
    *z += (int64_t) x*(int64_t) y;
    97b0:	0c 4d       	mov	r13,	r12	;
    97b2:	b0 12 ec d1 	call	#53740		;#0xd1ec
    97b6:	06 4c       	mov	r12,	r6	;
    97b8:	04 4a       	mov	r10,	r4	;
    97ba:	0c 45       	mov	r5,	r12	;
    97bc:	b0 12 ec d1 	call	#53740		;#0xd1ec
    97c0:	0f 4c       	mov	r12,	r15	;
    97c2:	09 46       	mov	r6,	r9	;
    97c4:	0a 46       	mov	r6,	r10	;
    97c6:	0b 46       	mov	r6,	r11	;
    97c8:	0c 44       	mov	r4,	r12	;
    97ca:	0d 45       	mov	r5,	r13	;
    97cc:	0e 4f       	mov	r15,	r14	;
    97ce:	b0 12 36 cb 	call	#52022		;#0xcb36
    97d2:	2b 47       	mov	@r7,	r11	;
    97d4:	16 47 02 00 	mov	2(r7),	r6	;
    97d8:	18 47 04 00 	mov	4(r7),	r8	;
    97dc:	19 47 06 00 	mov	6(r7),	r9	;
    97e0:	0c 5b       	add	r11,	r12	;
    97e2:	1a 43       	mov	#1,	r10	;r3 As==01
    97e4:	0c 9b       	cmp	r11,	r12	;
    97e6:	01 28       	jnc	$+4      	;abs 0x97ea
    97e8:	0a 43       	clr	r10		;
    97ea:	0d 56       	add	r6,	r13	;
    97ec:	1b 43       	mov	#1,	r11	;r3 As==01
    97ee:	0d 96       	cmp	r6,	r13	;
    97f0:	01 28       	jnc	$+4      	;abs 0x97f4
    97f2:	0b 43       	clr	r11		;
    97f4:	0a 5d       	add	r13,	r10	;
    97f6:	16 43       	mov	#1,	r6	;r3 As==01
    97f8:	0a 9d       	cmp	r13,	r10	;
    97fa:	01 28       	jnc	$+4      	;abs 0x97fe
    97fc:	06 43       	clr	r6		;
    97fe:	0b d6       	bis	r6,	r11	;
    9800:	0e 58       	add	r8,	r14	;
    9802:	1d 43       	mov	#1,	r13	;r3 As==01
    9804:	0e 98       	cmp	r8,	r14	;
    9806:	01 28       	jnc	$+4      	;abs 0x980a
    9808:	0d 43       	clr	r13		;
    980a:	0b 5e       	add	r14,	r11	;
    980c:	18 43       	mov	#1,	r8	;r3 As==01
    980e:	0b 9e       	cmp	r14,	r11	;
    9810:	01 28       	jnc	$+4      	;abs 0x9814
    9812:	08 43       	clr	r8		;
    9814:	0d d8       	bis	r8,	r13	;
    9816:	0f 59       	add	r9,	r15	;
    9818:	87 4c 00 00 	mov	r12,	0(r7)	;
    981c:	87 4a 02 00 	mov	r10,	2(r7)	;
    9820:	87 4b 04 00 	mov	r11,	4(r7)	;
    9824:	0d 5f       	add	r15,	r13	;
    9826:	87 4d 06 00 	mov	r13,	6(r7)	;
}
    982a:	30 40 68 d1 	br	#0xd168		;

0000982e <int48_to_64>:
    use where interrupt code could not see a half completed operation.
    \param y The destination 64 bit value, which is zeroed
    \param x A pointer to the source 48 bit value.
 */
static __inline__ int64_t int48_to_64(int16_t x[3])
{
    982e:	0a 12       	push	r10		;
    9830:	09 12       	push	r9		;
    9832:	08 12       	push	r8		;
    9834:	21 83       	decd	r1		;
    9836:	0a 4c       	mov	r12,	r10	;
    int64_t y;

    y = x[2];
    9838:	18 4c 04 00 	mov	4(r12),	r8	;
    983c:	0c 48       	mov	r8,	r12	;
    983e:	b0 12 ec d1 	call	#53740		;#0xd1ec
    9842:	0f 4c       	mov	r12,	r15	;
    y <<= 16;
    9844:	39 40 14 cd 	mov	#52500,	r9	;#0xcd14
    9848:	b1 40 10 00 	mov	#16,	0(r1)	;#0x0010
    984c:	00 00 
    984e:	0c 48       	mov	r8,	r12	;
    9850:	0d 4f       	mov	r15,	r13	;
    9852:	0e 4f       	mov	r15,	r14	;
    9854:	89 12       	call	r9		;
    y |= (uint16_t) x[1];
    9856:	1c da 02 00 	bis	2(r10),	r12	;
    y <<= 16;
    985a:	89 12       	call	r9		;
    y |= (uint16_t) x[0];
    return  y;
}
    985c:	2c da       	bis	@r10,	r12	;
    985e:	21 53       	incd	r1		;
    9860:	30 40 70 d1 	br	#0xd170		;

00009864 <int64_to_48>:
    use where interrupt code could not see a half completed operation.
    \param y A pointer to the destination 48 bit value.
    \param x The source 64 bit value, which is zeroed
 */
static __inline__ void int64_to_48(int16_t y[3], int64_t x)
{
    9864:	0a 12       	push	r10		;
    9866:	09 12       	push	r9		;
    9868:	08 12       	push	r8		;
    986a:	07 12       	push	r7		;
    986c:	06 12       	push	r6		;
    986e:	05 12       	push	r5		;
    9870:	21 83       	decd	r1		;
    9872:	0a 4c       	mov	r12,	r10	;
    9874:	19 41 10 00 	mov	16(r1),	r9	;0x00010
    9878:	15 41 12 00 	mov	18(r1),	r5	;0x00012
    987c:	16 41 14 00 	mov	20(r1),	r6	;0x00014
    9880:	17 41 16 00 	mov	22(r1),	r7	;0x00016
    y[2] = x >> 32;
    9884:	38 40 90 cd 	mov	#52624,	r8	;#0xcd90
    9888:	b1 40 20 00 	mov	#32,	0(r1)	;#0x0020
    988c:	00 00 
    988e:	0c 49       	mov	r9,	r12	;
    9890:	0d 45       	mov	r5,	r13	;
    9892:	0e 46       	mov	r6,	r14	;
    9894:	0f 47       	mov	r7,	r15	;
    9896:	88 12       	call	r8		;
    9898:	8a 4c 04 00 	mov	r12,	4(r10)	;
    y[1] = x >> 16;
    989c:	b1 40 10 00 	mov	#16,	0(r1)	;#0x0010
    98a0:	00 00 
    98a2:	0c 49       	mov	r9,	r12	;
    98a4:	0d 45       	mov	r5,	r13	;
    98a6:	0e 46       	mov	r6,	r14	;
    98a8:	0f 47       	mov	r7,	r15	;
    98aa:	88 12       	call	r8		;
    98ac:	8a 4c 02 00 	mov	r12,	2(r10)	;
    y[0] = x;
    98b0:	8a 49 00 00 	mov	r9,	0(r10)	;
}
    98b4:	21 53       	incd	r1		;
    98b6:	30 40 6a d1 	br	#0xd16a		;

000098ba <transfer48>:
    \param y A pointer to the destination 48 bit value.
    \param x A pointer to the source 48 bit value, which is zeroed
 */
static __inline__ void transfer48(int16_t y[3], int16_t x[3])
{
    y[2] = x[2];
    98ba:	9c 4d 04 00 	mov	4(r13),	4(r12)	;
    98be:	04 00 
    y[1] = x[1];
    98c0:	9c 4d 02 00 	mov	2(r13),	2(r12)	;
    98c4:	02 00 
    y[0] = x[0];
    98c6:	ac 4d 00 00 	mov	@r13,	0(r12)	;
    x[0] =
    x[1] =
    x[2] = 0;
    98ca:	8d 43 04 00 	mov	#0,	4(r13)	;r3 As==00
{
    y[2] = x[2];
    y[1] = x[1];
    y[0] = x[0];
    x[0] =
    x[1] =
    98ce:	8d 43 02 00 	mov	#0,	2(r13)	;r3 As==00
static __inline__ void transfer48(int16_t y[3], int16_t x[3])
{
    y[2] = x[2];
    y[1] = x[1];
    y[0] = x[0];
    x[0] =
    98d2:	8d 43 00 00 	mov	#0,	0(r13)	;r3 As==00
    x[1] =
    x[2] = 0;
}
    98d6:	30 41       	ret			

000098d8 <assign48>:
    \param y A pointer to the destination 48 bit value.
    \param x A pointer to the source 48 bit value.
 */
static __inline__ void assign48(int16_t y[3], const int16_t x[3])
{
    y[2] = x[2];
    98d8:	9c 4d 04 00 	mov	4(r13),	4(r12)	;
    98dc:	04 00 
    y[1] = x[1];
    98de:	9c 4d 02 00 	mov	2(r13),	2(r12)	;
    98e2:	02 00 
    y[0] = x[0];
    98e4:	ac 4d 00 00 	mov	@r13,	0(r12)	;
}
    98e8:	30 41       	ret			

000098ea <clear48>:
    interrupts are already disabled.
    \param z A pointer to the 48 bit accumulator.
 */
static __inline__ void clear48(int16_t z[3])
{
    z[2] = 0;
    98ea:	8c 43 04 00 	mov	#0,	4(r12)	;r3 As==00
    z[1] = 0;
    98ee:	8c 43 02 00 	mov	#0,	2(r12)	;r3 As==00
    z[0] = 0;
    98f2:	8c 43 00 00 	mov	#0,	0(r12)	;r3 As==00
}
    98f6:	30 41       	ret			

000098f8 <accum48>:
    /* Accumulate a 32 bit integer value into a 48 bit one represented
       by a 3 element int16_t array */
#if defined(__MSP430__)  &&  defined(__GNUC__)
    int16_t y_ex;

    __asm__ __volatile__ (
    98f8:	0f 43       	clr	r15		;
    98fa:	0f 4e       	mov	r14,	r15	;
    98fc:	0f 5f       	rla	r15		;
    98fe:	0f 7f       	subc	r15,	r15	;
    9900:	3f e3       	inv	r15		;
    9902:	8c 5d 00 00 	add	r13,	0(r12)	;
    9906:	8c 6e 02 00 	addc	r14,	2(r12)	;
    990a:	8c 6f 04 00 	addc	r15,	4(r12)	;
    acc >>= 16;
    x[1] = acc;
    acc >>= 16;
    x[2] = acc;
#endif
}
    990e:	30 41       	ret			

00009910 <brief_pause>:
#endif

static void __inline__ brief_pause(unsigned int n)
{
    while (n > 0)
    9910:	0c 93       	cmp	#0,	r12	;r3 As==00
    9912:	04 24       	jz	$+10     	;abs 0x991c
    {
        n--;
    9914:	3c 53       	add	#-1,	r12	;r3 As==11
        __no_operation();
    9916:	03 43       	nop			
}
#endif

static void __inline__ brief_pause(unsigned int n)
{
    while (n > 0)
    9918:	0c 93       	cmp	#0,	r12	;r3 As==00
    991a:	fc 23       	jnz	$-6      	;abs 0x9914
    {
        n--;
        __no_operation();
    }
}
    991c:	30 41       	ret			

0000991e <restart_watchdog>:

static void __inline__ restart_watchdog(void)
{
#if defined(__MSP430__)
    WDTCTL = (WDTCTL & 0xFF) | WDTPW | WDTCNTCL;
    991e:	1c 42 20 01 	mov	&0x0120,r12	;0x0120
    9922:	3c f0 ff 00 	and	#255,	r12	;#0x00ff
    9926:	3c d0 08 5a 	bis	#23048,	r12	;#0x5a08
    992a:	82 4c 20 01 	mov	r12,	&0x0120	;
#endif
}
    992e:	30 41       	ret			

00009930 <mul48_32_16>:

#include <inttypes.h>
#include "emeter-toolkit.h"

int32_t mul48_32_16(int32_t x, uint16_t y)
{
    9930:	0a 12       	push	r10		;
    9932:	09 12       	push	r9		;
    9934:	08 12       	push	r8		;
    9936:	07 12       	push	r7		;
    9938:	21 83       	decd	r1		;
    993a:	09 4d       	mov	r13,	r9	;
    993c:	07 4e       	mov	r14,	r7	;
    int64_t z;
    
    z = (int64_t) x*(int64_t) y;
    993e:	08 4c       	mov	r12,	r8	;
    9940:	0c 4d       	mov	r13,	r12	;
    9942:	b0 12 ec d1 	call	#53740		;#0xd1ec
    9946:	0f 43       	clr	r15		;
    9948:	0a 4c       	mov	r12,	r10	;
    994a:	0b 4c       	mov	r12,	r11	;
    994c:	0c 47       	mov	r7,	r12	;
    994e:	0d 4f       	mov	r15,	r13	;
    9950:	0e 4f       	mov	r15,	r14	;
    9952:	b0 12 36 cb 	call	#52022		;#0xcb36
    return z >> 16;
    9956:	b1 40 10 00 	mov	#16,	0(r1)	;#0x0010
    995a:	00 00 
    995c:	b0 12 90 cd 	call	#52624		;#0xcd90
}
    9960:	21 53       	incd	r1		;
    9962:	30 40 6e d1 	br	#0xd16e		;

00009966 <int48_to_64>:
    use where interrupt code could not see a half completed operation.
    \param y The destination 64 bit value, which is zeroed
    \param x A pointer to the source 48 bit value.
 */
static __inline__ int64_t int48_to_64(int16_t x[3])
{
    9966:	0a 12       	push	r10		;
    9968:	09 12       	push	r9		;
    996a:	08 12       	push	r8		;
    996c:	21 83       	decd	r1		;
    996e:	0a 4c       	mov	r12,	r10	;
    int64_t y;

    y = x[2];
    9970:	18 4c 04 00 	mov	4(r12),	r8	;
    9974:	0c 48       	mov	r8,	r12	;
    9976:	b0 12 ec d1 	call	#53740		;#0xd1ec
    997a:	0f 4c       	mov	r12,	r15	;
    y <<= 16;
    997c:	39 40 14 cd 	mov	#52500,	r9	;#0xcd14
    9980:	b1 40 10 00 	mov	#16,	0(r1)	;#0x0010
    9984:	00 00 
    9986:	0c 48       	mov	r8,	r12	;
    9988:	0d 4f       	mov	r15,	r13	;
    998a:	0e 4f       	mov	r15,	r14	;
    998c:	89 12       	call	r9		;
    y |= (uint16_t) x[1];
    998e:	1c da 02 00 	bis	2(r10),	r12	;
    y <<= 16;
    9992:	89 12       	call	r9		;
    y |= (uint16_t) x[0];
    return  y;
}
    9994:	2c da       	bis	@r10,	r12	;
    9996:	21 53       	incd	r1		;
    9998:	30 40 70 d1 	br	#0xd170		;

0000999c <int64_to_48>:
    use where interrupt code could not see a half completed operation.
    \param y A pointer to the destination 48 bit value.
    \param x The source 64 bit value, which is zeroed
 */
static __inline__ void int64_to_48(int16_t y[3], int64_t x)
{
    999c:	0a 12       	push	r10		;
    999e:	09 12       	push	r9		;
    99a0:	08 12       	push	r8		;
    99a2:	07 12       	push	r7		;
    99a4:	06 12       	push	r6		;
    99a6:	05 12       	push	r5		;
    99a8:	21 83       	decd	r1		;
    99aa:	0a 4c       	mov	r12,	r10	;
    99ac:	19 41 10 00 	mov	16(r1),	r9	;0x00010
    99b0:	15 41 12 00 	mov	18(r1),	r5	;0x00012
    99b4:	16 41 14 00 	mov	20(r1),	r6	;0x00014
    99b8:	17 41 16 00 	mov	22(r1),	r7	;0x00016
    y[2] = x >> 32;
    99bc:	38 40 90 cd 	mov	#52624,	r8	;#0xcd90
    99c0:	b1 40 20 00 	mov	#32,	0(r1)	;#0x0020
    99c4:	00 00 
    99c6:	0c 49       	mov	r9,	r12	;
    99c8:	0d 45       	mov	r5,	r13	;
    99ca:	0e 46       	mov	r6,	r14	;
    99cc:	0f 47       	mov	r7,	r15	;
    99ce:	88 12       	call	r8		;
    99d0:	8a 4c 04 00 	mov	r12,	4(r10)	;
    y[1] = x >> 16;
    99d4:	b1 40 10 00 	mov	#16,	0(r1)	;#0x0010
    99d8:	00 00 
    99da:	0c 49       	mov	r9,	r12	;
    99dc:	0d 45       	mov	r5,	r13	;
    99de:	0e 46       	mov	r6,	r14	;
    99e0:	0f 47       	mov	r7,	r15	;
    99e2:	88 12       	call	r8		;
    99e4:	8a 4c 02 00 	mov	r12,	2(r10)	;
    y[0] = x;
    99e8:	8a 49 00 00 	mov	r9,	0(r10)	;
}
    99ec:	21 53       	incd	r1		;
    99ee:	30 40 6a d1 	br	#0xd16a		;

000099f2 <transfer48>:
    \param y A pointer to the destination 48 bit value.
    \param x A pointer to the source 48 bit value, which is zeroed
 */
static __inline__ void transfer48(int16_t y[3], int16_t x[3])
{
    y[2] = x[2];
    99f2:	9c 4d 04 00 	mov	4(r13),	4(r12)	;
    99f6:	04 00 
    y[1] = x[1];
    99f8:	9c 4d 02 00 	mov	2(r13),	2(r12)	;
    99fc:	02 00 
    y[0] = x[0];
    99fe:	ac 4d 00 00 	mov	@r13,	0(r12)	;
    x[0] =
    x[1] =
    x[2] = 0;
    9a02:	8d 43 04 00 	mov	#0,	4(r13)	;r3 As==00
{
    y[2] = x[2];
    y[1] = x[1];
    y[0] = x[0];
    x[0] =
    x[1] =
    9a06:	8d 43 02 00 	mov	#0,	2(r13)	;r3 As==00
static __inline__ void transfer48(int16_t y[3], int16_t x[3])
{
    y[2] = x[2];
    y[1] = x[1];
    y[0] = x[0];
    x[0] =
    9a0a:	8d 43 00 00 	mov	#0,	0(r13)	;r3 As==00
    x[1] =
    x[2] = 0;
}
    9a0e:	30 41       	ret			

00009a10 <assign48>:
    \param y A pointer to the destination 48 bit value.
    \param x A pointer to the source 48 bit value.
 */
static __inline__ void assign48(int16_t y[3], const int16_t x[3])
{
    y[2] = x[2];
    9a10:	9c 4d 04 00 	mov	4(r13),	4(r12)	;
    9a14:	04 00 
    y[1] = x[1];
    9a16:	9c 4d 02 00 	mov	2(r13),	2(r12)	;
    9a1a:	02 00 
    y[0] = x[0];
    9a1c:	ac 4d 00 00 	mov	@r13,	0(r12)	;
}
    9a20:	30 41       	ret			

00009a22 <clear48>:
    interrupts are already disabled.
    \param z A pointer to the 48 bit accumulator.
 */
static __inline__ void clear48(int16_t z[3])
{
    z[2] = 0;
    9a22:	8c 43 04 00 	mov	#0,	4(r12)	;r3 As==00
    z[1] = 0;
    9a26:	8c 43 02 00 	mov	#0,	2(r12)	;r3 As==00
    z[0] = 0;
    9a2a:	8c 43 00 00 	mov	#0,	0(r12)	;r3 As==00
}
    9a2e:	30 41       	ret			

00009a30 <accum48>:
    /* Accumulate a 32 bit integer value into a 48 bit one represented
       by a 3 element int16_t array */
#if defined(__MSP430__)  &&  defined(__GNUC__)
    int16_t y_ex;

    __asm__ __volatile__ (
    9a30:	0f 43       	clr	r15		;
    9a32:	0f 4e       	mov	r14,	r15	;
    9a34:	0f 5f       	rla	r15		;
    9a36:	0f 7f       	subc	r15,	r15	;
    9a38:	3f e3       	inv	r15		;
    9a3a:	8c 5d 00 00 	add	r13,	0(r12)	;
    9a3e:	8c 6e 02 00 	addc	r14,	2(r12)	;
    9a42:	8c 6f 04 00 	addc	r15,	4(r12)	;
    acc >>= 16;
    x[1] = acc;
    acc >>= 16;
    x[2] = acc;
#endif
}
    9a46:	30 41       	ret			

00009a48 <brief_pause>:
#endif

static void __inline__ brief_pause(unsigned int n)
{
    while (n > 0)
    9a48:	0c 93       	cmp	#0,	r12	;r3 As==00
    9a4a:	04 24       	jz	$+10     	;abs 0x9a54
    {
        n--;
    9a4c:	3c 53       	add	#-1,	r12	;r3 As==11
        __no_operation();
    9a4e:	03 43       	nop			
}
#endif

static void __inline__ brief_pause(unsigned int n)
{
    while (n > 0)
    9a50:	0c 93       	cmp	#0,	r12	;r3 As==00
    9a52:	fc 23       	jnz	$-6      	;abs 0x9a4c
    {
        n--;
        __no_operation();
    }
}
    9a54:	30 41       	ret			

00009a56 <restart_watchdog>:

static void __inline__ restart_watchdog(void)
{
#if defined(__MSP430__)
    WDTCTL = (WDTCTL & 0xFF) | WDTPW | WDTCNTCL;
    9a56:	1c 42 20 01 	mov	&0x0120,r12	;0x0120
    9a5a:	3c f0 ff 00 	and	#255,	r12	;#0x00ff
    9a5e:	3c d0 08 5a 	bis	#23048,	r12	;#0x5a08
    9a62:	82 4c 20 01 	mov	r12,	&0x0120	;
#endif
}
    9a66:	30 41       	ret			

00009a68 <mul48u_32_16>:

#include <inttypes.h>
#include "emeter-toolkit.h"

uint32_t mul48u_32_16(uint32_t x, uint16_t y)
{
    9a68:	0a 12       	push	r10		;
    9a6a:	09 12       	push	r9		;
    9a6c:	08 12       	push	r8		;
    9a6e:	21 83       	decd	r1		;
    uint64_t z;
    
    z = (int64_t) x*(int64_t) y;
    9a70:	09 4d       	mov	r13,	r9	;
    9a72:	0f 43       	clr	r15		;
    9a74:	08 4c       	mov	r12,	r8	;
    9a76:	0a 4f       	mov	r15,	r10	;
    9a78:	0b 4f       	mov	r15,	r11	;
    9a7a:	0c 4e       	mov	r14,	r12	;
    9a7c:	0d 4f       	mov	r15,	r13	;
    9a7e:	0e 4f       	mov	r15,	r14	;
    9a80:	b0 12 36 cb 	call	#52022		;#0xcb36
    return z >> 16;
    9a84:	b1 40 10 00 	mov	#16,	0(r1)	;#0x0010
    9a88:	00 00 
    9a8a:	b0 12 98 cc 	call	#52376		;#0xcc98
}
    9a8e:	21 53       	incd	r1		;
    9a90:	30 40 70 d1 	br	#0xd170		;

00009a94 <int48_to_64>:
    use where interrupt code could not see a half completed operation.
    \param y The destination 64 bit value, which is zeroed
    \param x A pointer to the source 48 bit value.
 */
static __inline__ int64_t int48_to_64(int16_t x[3])
{
    9a94:	0a 12       	push	r10		;
    9a96:	09 12       	push	r9		;
    9a98:	08 12       	push	r8		;
    9a9a:	21 83       	decd	r1		;
    9a9c:	0a 4c       	mov	r12,	r10	;
    int64_t y;

    y = x[2];
    9a9e:	18 4c 04 00 	mov	4(r12),	r8	;
    9aa2:	0c 48       	mov	r8,	r12	;
    9aa4:	b0 12 ec d1 	call	#53740		;#0xd1ec
    9aa8:	0f 4c       	mov	r12,	r15	;
    y <<= 16;
    9aaa:	39 40 14 cd 	mov	#52500,	r9	;#0xcd14
    9aae:	b1 40 10 00 	mov	#16,	0(r1)	;#0x0010
    9ab2:	00 00 
    9ab4:	0c 48       	mov	r8,	r12	;
    9ab6:	0d 4f       	mov	r15,	r13	;
    9ab8:	0e 4f       	mov	r15,	r14	;
    9aba:	89 12       	call	r9		;
    y |= (uint16_t) x[1];
    9abc:	1c da 02 00 	bis	2(r10),	r12	;
    y <<= 16;
    9ac0:	89 12       	call	r9		;
    y |= (uint16_t) x[0];
    return  y;
}
    9ac2:	2c da       	bis	@r10,	r12	;
    9ac4:	21 53       	incd	r1		;
    9ac6:	30 40 70 d1 	br	#0xd170		;

00009aca <int64_to_48>:
    use where interrupt code could not see a half completed operation.
    \param y A pointer to the destination 48 bit value.
    \param x The source 64 bit value, which is zeroed
 */
static __inline__ void int64_to_48(int16_t y[3], int64_t x)
{
    9aca:	0a 12       	push	r10		;
    9acc:	09 12       	push	r9		;
    9ace:	08 12       	push	r8		;
    9ad0:	07 12       	push	r7		;
    9ad2:	06 12       	push	r6		;
    9ad4:	05 12       	push	r5		;
    9ad6:	21 83       	decd	r1		;
    9ad8:	0a 4c       	mov	r12,	r10	;
    9ada:	19 41 10 00 	mov	16(r1),	r9	;0x00010
    9ade:	15 41 12 00 	mov	18(r1),	r5	;0x00012
    9ae2:	16 41 14 00 	mov	20(r1),	r6	;0x00014
    9ae6:	17 41 16 00 	mov	22(r1),	r7	;0x00016
    y[2] = x >> 32;
    9aea:	38 40 90 cd 	mov	#52624,	r8	;#0xcd90
    9aee:	b1 40 20 00 	mov	#32,	0(r1)	;#0x0020
    9af2:	00 00 
    9af4:	0c 49       	mov	r9,	r12	;
    9af6:	0d 45       	mov	r5,	r13	;
    9af8:	0e 46       	mov	r6,	r14	;
    9afa:	0f 47       	mov	r7,	r15	;
    9afc:	88 12       	call	r8		;
    9afe:	8a 4c 04 00 	mov	r12,	4(r10)	;
    y[1] = x >> 16;
    9b02:	b1 40 10 00 	mov	#16,	0(r1)	;#0x0010
    9b06:	00 00 
    9b08:	0c 49       	mov	r9,	r12	;
    9b0a:	0d 45       	mov	r5,	r13	;
    9b0c:	0e 46       	mov	r6,	r14	;
    9b0e:	0f 47       	mov	r7,	r15	;
    9b10:	88 12       	call	r8		;
    9b12:	8a 4c 02 00 	mov	r12,	2(r10)	;
    y[0] = x;
    9b16:	8a 49 00 00 	mov	r9,	0(r10)	;
}
    9b1a:	21 53       	incd	r1		;
    9b1c:	30 40 6a d1 	br	#0xd16a		;

00009b20 <transfer48>:
    \param y A pointer to the destination 48 bit value.
    \param x A pointer to the source 48 bit value, which is zeroed
 */
static __inline__ void transfer48(int16_t y[3], int16_t x[3])
{
    y[2] = x[2];
    9b20:	9c 4d 04 00 	mov	4(r13),	4(r12)	;
    9b24:	04 00 
    y[1] = x[1];
    9b26:	9c 4d 02 00 	mov	2(r13),	2(r12)	;
    9b2a:	02 00 
    y[0] = x[0];
    9b2c:	ac 4d 00 00 	mov	@r13,	0(r12)	;
    x[0] =
    x[1] =
    x[2] = 0;
    9b30:	8d 43 04 00 	mov	#0,	4(r13)	;r3 As==00
{
    y[2] = x[2];
    y[1] = x[1];
    y[0] = x[0];
    x[0] =
    x[1] =
    9b34:	8d 43 02 00 	mov	#0,	2(r13)	;r3 As==00
static __inline__ void transfer48(int16_t y[3], int16_t x[3])
{
    y[2] = x[2];
    y[1] = x[1];
    y[0] = x[0];
    x[0] =
    9b38:	8d 43 00 00 	mov	#0,	0(r13)	;r3 As==00
    x[1] =
    x[2] = 0;
}
    9b3c:	30 41       	ret			

00009b3e <assign48>:
    \param y A pointer to the destination 48 bit value.
    \param x A pointer to the source 48 bit value.
 */
static __inline__ void assign48(int16_t y[3], const int16_t x[3])
{
    y[2] = x[2];
    9b3e:	9c 4d 04 00 	mov	4(r13),	4(r12)	;
    9b42:	04 00 
    y[1] = x[1];
    9b44:	9c 4d 02 00 	mov	2(r13),	2(r12)	;
    9b48:	02 00 
    y[0] = x[0];
    9b4a:	ac 4d 00 00 	mov	@r13,	0(r12)	;
}
    9b4e:	30 41       	ret			

00009b50 <clear48>:
    interrupts are already disabled.
    \param z A pointer to the 48 bit accumulator.
 */
static __inline__ void clear48(int16_t z[3])
{
    z[2] = 0;
    9b50:	8c 43 04 00 	mov	#0,	4(r12)	;r3 As==00
    z[1] = 0;
    9b54:	8c 43 02 00 	mov	#0,	2(r12)	;r3 As==00
    z[0] = 0;
    9b58:	8c 43 00 00 	mov	#0,	0(r12)	;r3 As==00
}
    9b5c:	30 41       	ret			

00009b5e <accum48>:
    /* Accumulate a 32 bit integer value into a 48 bit one represented
       by a 3 element int16_t array */
#if defined(__MSP430__)  &&  defined(__GNUC__)
    int16_t y_ex;

    __asm__ __volatile__ (
    9b5e:	0f 43       	clr	r15		;
    9b60:	0f 4e       	mov	r14,	r15	;
    9b62:	0f 5f       	rla	r15		;
    9b64:	0f 7f       	subc	r15,	r15	;
    9b66:	3f e3       	inv	r15		;
    9b68:	8c 5d 00 00 	add	r13,	0(r12)	;
    9b6c:	8c 6e 02 00 	addc	r14,	2(r12)	;
    9b70:	8c 6f 04 00 	addc	r15,	4(r12)	;
    acc >>= 16;
    x[1] = acc;
    acc >>= 16;
    x[2] = acc;
#endif
}
    9b74:	30 41       	ret			

00009b76 <brief_pause>:
#endif

static void __inline__ brief_pause(unsigned int n)
{
    while (n > 0)
    9b76:	0c 93       	cmp	#0,	r12	;r3 As==00
    9b78:	04 24       	jz	$+10     	;abs 0x9b82
    {
        n--;
    9b7a:	3c 53       	add	#-1,	r12	;r3 As==11
        __no_operation();
    9b7c:	03 43       	nop			
}
#endif

static void __inline__ brief_pause(unsigned int n)
{
    while (n > 0)
    9b7e:	0c 93       	cmp	#0,	r12	;r3 As==00
    9b80:	fc 23       	jnz	$-6      	;abs 0x9b7a
    {
        n--;
        __no_operation();
    }
}
    9b82:	30 41       	ret			

00009b84 <restart_watchdog>:

static void __inline__ restart_watchdog(void)
{
#if defined(__MSP430__)
    WDTCTL = (WDTCTL & 0xFF) | WDTPW | WDTCNTCL;
    9b84:	1c 42 20 01 	mov	&0x0120,r12	;0x0120
    9b88:	3c f0 ff 00 	and	#255,	r12	;#0x00ff
    9b8c:	3c d0 08 5a 	bis	#23048,	r12	;#0x5a08
    9b90:	82 4c 20 01 	mov	r12,	&0x0120	;
#endif
}
    9b94:	30 41       	ret			

00009b96 <q1_15_mul>:
#else
    z = (int32_t) x*y;
    x1 = (z >> 15);
#endif
    return x1;
}
    9b96:	02 12       	push	r2		;
    9b98:	32 c2       	dint			
    9b9a:	82 4c 32 01 	mov	r12,	&0x0132	;
    9b9e:	82 4d 38 01 	mov	r13,	&0x0138	;
    9ba2:	1f 42 3c 01 	mov	&0x013c,r15	;0x013c
    9ba6:	1e 42 3a 01 	mov	&0x013a,r14	;0x013a
    9baa:	32 41       	pop	r2		;
    9bac:	0e 5e       	rla	r14		;
    9bae:	0f 6f       	rlc	r15		;
    9bb0:	0c 4f       	mov	r15,	r12	;
    9bb2:	30 41       	ret			

00009bb4 <int48_to_64>:
    use where interrupt code could not see a half completed operation.
    \param y The destination 64 bit value, which is zeroed
    \param x A pointer to the source 48 bit value.
 */
static __inline__ int64_t int48_to_64(int16_t x[3])
{
    9bb4:	0a 12       	push	r10		;
    9bb6:	09 12       	push	r9		;
    9bb8:	08 12       	push	r8		;
    9bba:	21 83       	decd	r1		;
    9bbc:	0a 4c       	mov	r12,	r10	;
    int64_t y;

    y = x[2];
    9bbe:	18 4c 04 00 	mov	4(r12),	r8	;
    9bc2:	0c 48       	mov	r8,	r12	;
    9bc4:	b0 12 ec d1 	call	#53740		;#0xd1ec
    9bc8:	0f 4c       	mov	r12,	r15	;
    y <<= 16;
    9bca:	39 40 14 cd 	mov	#52500,	r9	;#0xcd14
    9bce:	b1 40 10 00 	mov	#16,	0(r1)	;#0x0010
    9bd2:	00 00 
    9bd4:	0c 48       	mov	r8,	r12	;
    9bd6:	0d 4f       	mov	r15,	r13	;
    9bd8:	0e 4f       	mov	r15,	r14	;
    9bda:	89 12       	call	r9		;
    y |= (uint16_t) x[1];
    9bdc:	1c da 02 00 	bis	2(r10),	r12	;
    y <<= 16;
    9be0:	89 12       	call	r9		;
    y |= (uint16_t) x[0];
    return  y;
}
    9be2:	2c da       	bis	@r10,	r12	;
    9be4:	21 53       	incd	r1		;
    9be6:	30 40 70 d1 	br	#0xd170		;

00009bea <int64_to_48>:
    use where interrupt code could not see a half completed operation.
    \param y A pointer to the destination 48 bit value.
    \param x The source 64 bit value, which is zeroed
 */
static __inline__ void int64_to_48(int16_t y[3], int64_t x)
{
    9bea:	0a 12       	push	r10		;
    9bec:	09 12       	push	r9		;
    9bee:	08 12       	push	r8		;
    9bf0:	07 12       	push	r7		;
    9bf2:	06 12       	push	r6		;
    9bf4:	05 12       	push	r5		;
    9bf6:	21 83       	decd	r1		;
    9bf8:	0a 4c       	mov	r12,	r10	;
    9bfa:	19 41 10 00 	mov	16(r1),	r9	;0x00010
    9bfe:	15 41 12 00 	mov	18(r1),	r5	;0x00012
    9c02:	16 41 14 00 	mov	20(r1),	r6	;0x00014
    9c06:	17 41 16 00 	mov	22(r1),	r7	;0x00016
    y[2] = x >> 32;
    9c0a:	38 40 90 cd 	mov	#52624,	r8	;#0xcd90
    9c0e:	b1 40 20 00 	mov	#32,	0(r1)	;#0x0020
    9c12:	00 00 
    9c14:	0c 49       	mov	r9,	r12	;
    9c16:	0d 45       	mov	r5,	r13	;
    9c18:	0e 46       	mov	r6,	r14	;
    9c1a:	0f 47       	mov	r7,	r15	;
    9c1c:	88 12       	call	r8		;
    9c1e:	8a 4c 04 00 	mov	r12,	4(r10)	;
    y[1] = x >> 16;
    9c22:	b1 40 10 00 	mov	#16,	0(r1)	;#0x0010
    9c26:	00 00 
    9c28:	0c 49       	mov	r9,	r12	;
    9c2a:	0d 45       	mov	r5,	r13	;
    9c2c:	0e 46       	mov	r6,	r14	;
    9c2e:	0f 47       	mov	r7,	r15	;
    9c30:	88 12       	call	r8		;
    9c32:	8a 4c 02 00 	mov	r12,	2(r10)	;
    y[0] = x;
    9c36:	8a 49 00 00 	mov	r9,	0(r10)	;
}
    9c3a:	21 53       	incd	r1		;
    9c3c:	30 40 6a d1 	br	#0xd16a		;

00009c40 <transfer48>:
    \param y A pointer to the destination 48 bit value.
    \param x A pointer to the source 48 bit value, which is zeroed
 */
static __inline__ void transfer48(int16_t y[3], int16_t x[3])
{
    y[2] = x[2];
    9c40:	9c 4d 04 00 	mov	4(r13),	4(r12)	;
    9c44:	04 00 
    y[1] = x[1];
    9c46:	9c 4d 02 00 	mov	2(r13),	2(r12)	;
    9c4a:	02 00 
    y[0] = x[0];
    9c4c:	ac 4d 00 00 	mov	@r13,	0(r12)	;
    x[0] =
    x[1] =
    x[2] = 0;
    9c50:	8d 43 04 00 	mov	#0,	4(r13)	;r3 As==00
{
    y[2] = x[2];
    y[1] = x[1];
    y[0] = x[0];
    x[0] =
    x[1] =
    9c54:	8d 43 02 00 	mov	#0,	2(r13)	;r3 As==00
static __inline__ void transfer48(int16_t y[3], int16_t x[3])
{
    y[2] = x[2];
    y[1] = x[1];
    y[0] = x[0];
    x[0] =
    9c58:	8d 43 00 00 	mov	#0,	0(r13)	;r3 As==00
    x[1] =
    x[2] = 0;
}
    9c5c:	30 41       	ret			

00009c5e <assign48>:
    \param y A pointer to the destination 48 bit value.
    \param x A pointer to the source 48 bit value.
 */
static __inline__ void assign48(int16_t y[3], const int16_t x[3])
{
    y[2] = x[2];
    9c5e:	9c 4d 04 00 	mov	4(r13),	4(r12)	;
    9c62:	04 00 
    y[1] = x[1];
    9c64:	9c 4d 02 00 	mov	2(r13),	2(r12)	;
    9c68:	02 00 
    y[0] = x[0];
    9c6a:	ac 4d 00 00 	mov	@r13,	0(r12)	;
}
    9c6e:	30 41       	ret			

00009c70 <clear48>:
    interrupts are already disabled.
    \param z A pointer to the 48 bit accumulator.
 */
static __inline__ void clear48(int16_t z[3])
{
    z[2] = 0;
    9c70:	8c 43 04 00 	mov	#0,	4(r12)	;r3 As==00
    z[1] = 0;
    9c74:	8c 43 02 00 	mov	#0,	2(r12)	;r3 As==00
    z[0] = 0;
    9c78:	8c 43 00 00 	mov	#0,	0(r12)	;r3 As==00
}
    9c7c:	30 41       	ret			

00009c7e <accum48>:
    /* Accumulate a 32 bit integer value into a 48 bit one represented
       by a 3 element int16_t array */
#if defined(__MSP430__)  &&  defined(__GNUC__)
    int16_t y_ex;

    __asm__ __volatile__ (
    9c7e:	0f 43       	clr	r15		;
    9c80:	0f 4e       	mov	r14,	r15	;
    9c82:	0f 5f       	rla	r15		;
    9c84:	0f 7f       	subc	r15,	r15	;
    9c86:	3f e3       	inv	r15		;
    9c88:	8c 5d 00 00 	add	r13,	0(r12)	;
    9c8c:	8c 6e 02 00 	addc	r14,	2(r12)	;
    9c90:	8c 6f 04 00 	addc	r15,	4(r12)	;
    acc >>= 16;
    x[1] = acc;
    acc >>= 16;
    x[2] = acc;
#endif
}
    9c94:	30 41       	ret			

00009c96 <brief_pause>:
#endif

static void __inline__ brief_pause(unsigned int n)
{
    while (n > 0)
    9c96:	0c 93       	cmp	#0,	r12	;r3 As==00
    9c98:	04 24       	jz	$+10     	;abs 0x9ca2
    {
        n--;
    9c9a:	3c 53       	add	#-1,	r12	;r3 As==11
        __no_operation();
    9c9c:	03 43       	nop			
}
#endif

static void __inline__ brief_pause(unsigned int n)
{
    while (n > 0)
    9c9e:	0c 93       	cmp	#0,	r12	;r3 As==00
    9ca0:	fc 23       	jnz	$-6      	;abs 0x9c9a
    {
        n--;
        __no_operation();
    }
}
    9ca2:	30 41       	ret			

00009ca4 <restart_watchdog>:

static void __inline__ restart_watchdog(void)
{
#if defined(__MSP430__)
    WDTCTL = (WDTCTL & 0xFF) | WDTPW | WDTCNTCL;
    9ca4:	1c 42 20 01 	mov	&0x0120,r12	;0x0120
    9ca8:	3c f0 ff 00 	and	#255,	r12	;#0x00ff
    9cac:	3c d0 08 5a 	bis	#23048,	r12	;#0x5a08
    9cb0:	82 4c 20 01 	mov	r12,	&0x0120	;
#endif
}
    9cb4:	30 41       	ret			

00009cb6 <sqac48_16>:

#include <inttypes.h>
#include "emeter-toolkit.h"

void sqac48_16(register int16_t z[3], register int16_t x)
{
    9cb6:	0a 12       	push	r10		;
    9cb8:	09 12       	push	r9		;
    9cba:	08 12       	push	r8		;
    9cbc:	07 12       	push	r7		;
    9cbe:	06 12       	push	r6		;
    9cc0:	05 12       	push	r5		;
    9cc2:	04 12       	push	r4		;
    9cc4:	21 82       	sub	#4,	r1	;r2 As==10
    9cc6:	0a 4c       	mov	r12,	r10	;
    9cc8:	09 4d       	mov	r13,	r9	;
    int64_t tmp;

    tmp = z[2];
    9cca:	17 4c 04 00 	mov	4(r12),	r7	;
    9cce:	0c 47       	mov	r7,	r12	;
    9cd0:	b0 12 ec d1 	call	#53740		;#0xd1ec
    9cd4:	0f 4c       	mov	r12,	r15	;
    tmp = tmp << 16;
    9cd6:	38 40 14 cd 	mov	#52500,	r8	;#0xcd14
    9cda:	b1 40 10 00 	mov	#16,	0(r1)	;#0x0010
    9cde:	00 00 
    9ce0:	0c 47       	mov	r7,	r12	;
    9ce2:	0d 4f       	mov	r15,	r13	;
    9ce4:	0e 4f       	mov	r15,	r14	;
    9ce6:	88 12       	call	r8		;
    9ce8:	04 4c       	mov	r12,	r4	;
    9cea:	05 4d       	mov	r13,	r5	;
    9cec:	06 4e       	mov	r14,	r6	;
    9cee:	81 4f 02 00 	mov	r15,	2(r1)	;
    tmp |= z[1];
    9cf2:	17 4a 02 00 	mov	2(r10),	r7	;
    9cf6:	0c 47       	mov	r7,	r12	;
    9cf8:	b0 12 ec d1 	call	#53740		;#0xd1ec
    9cfc:	0f 4c       	mov	r12,	r15	;
    tmp = tmp << 16;
    9cfe:	0c 44       	mov	r4,	r12	;
    9d00:	0c d7       	bis	r7,	r12	;
    9d02:	0d 45       	mov	r5,	r13	;
    9d04:	0d df       	bis	r15,	r13	;
    9d06:	0e 46       	mov	r6,	r14	;
    9d08:	0e df       	bis	r15,	r14	;
    9d0a:	1f d1 02 00 	bis	2(r1),	r15	;
    9d0e:	88 12       	call	r8		;
    9d10:	04 4c       	mov	r12,	r4	;
    9d12:	06 4d       	mov	r13,	r6	;
    9d14:	07 4e       	mov	r14,	r7	;
    9d16:	05 4f       	mov	r15,	r5	;
    tmp |= z[0];
    9d18:	28 4a       	mov	@r10,	r8	;
    9d1a:	0c 48       	mov	r8,	r12	;
    9d1c:	b0 12 ec d1 	call	#53740		;#0xd1ec
    9d20:	08 d4       	bis	r4,	r8	;
    9d22:	06 dc       	bis	r12,	r6	;
    9d24:	07 dc       	bis	r12,	r7	;
    9d26:	05 dc       	bis	r12,	r5	;
    9d28:	81 45 02 00 	mov	r5,	2(r1)	;
    tmp += (int32_t) x*(int32_t) x;
    9d2c:	0e 49       	mov	r9,	r14	;
    9d2e:	3e b0 00 80 	bit	#32768,	r14	;#0x8000
    9d32:	0f 7f       	subc	r15,	r15	;
    9d34:	3f e3       	inv	r15		;
    9d36:	0c 4e       	mov	r14,	r12	;
    9d38:	0d 4f       	mov	r15,	r13	;
    9d3a:	b0 12 58 d3 	call	#54104		;#0xd358
    9d3e:	05 4d       	mov	r13,	r5	;
    9d40:	09 4c       	mov	r12,	r9	;
    9d42:	04 4d       	mov	r13,	r4	;
    9d44:	0c 4d       	mov	r13,	r12	;
    9d46:	b0 12 ec d1 	call	#53740		;#0xd1ec
    9d4a:	08 59       	add	r9,	r8	;
    9d4c:	1d 43       	mov	#1,	r13	;r3 As==01
    9d4e:	08 99       	cmp	r9,	r8	;
    9d50:	01 28       	jnc	$+4      	;abs 0x9d54
    9d52:	0d 43       	clr	r13		;
    9d54:	06 55       	add	r5,	r6	;
    9d56:	19 43       	mov	#1,	r9	;r3 As==01
    9d58:	06 94       	cmp	r4,	r6	;
    9d5a:	01 28       	jnc	$+4      	;abs 0x9d5e
    9d5c:	09 43       	clr	r9		;
    9d5e:	04 4d       	mov	r13,	r4	;
    9d60:	04 56       	add	r6,	r4	;
    9d62:	1d 43       	mov	#1,	r13	;r3 As==01
    9d64:	04 96       	cmp	r6,	r4	;
    9d66:	01 28       	jnc	$+4      	;abs 0x9d6a
    9d68:	0d 43       	clr	r13		;
    9d6a:	09 dd       	bis	r13,	r9	;
    9d6c:	0d 4c       	mov	r12,	r13	;
    9d6e:	0d 57       	add	r7,	r13	;
    9d70:	1e 43       	mov	#1,	r14	;r3 As==01
    9d72:	0d 9c       	cmp	r12,	r13	;
    9d74:	01 28       	jnc	$+4      	;abs 0x9d78
    9d76:	0e 43       	clr	r14		;
    9d78:	09 5d       	add	r13,	r9	;
    9d7a:	1f 43       	mov	#1,	r15	;r3 As==01
    9d7c:	09 9d       	cmp	r13,	r9	;
    9d7e:	01 28       	jnc	$+4      	;abs 0x9d82
    9d80:	0f 43       	clr	r15		;
    9d82:	0e df       	bis	r15,	r14	;
    9d84:	1c 51 02 00 	add	2(r1),	r12	;
    9d88:	07 4e       	mov	r14,	r7	;
    9d8a:	07 5c       	add	r12,	r7	;
    z[2] = (tmp >> 32) & 0xFFFF;
    9d8c:	36 40 90 cd 	mov	#52624,	r6	;#0xcd90
    9d90:	b1 40 20 00 	mov	#32,	0(r1)	;#0x0020
    9d94:	00 00 
    9d96:	0c 48       	mov	r8,	r12	;
    9d98:	0d 44       	mov	r4,	r13	;
    9d9a:	0e 49       	mov	r9,	r14	;
    9d9c:	0f 47       	mov	r7,	r15	;
    9d9e:	86 12       	call	r6		;
    9da0:	8a 4c 04 00 	mov	r12,	4(r10)	;
    z[1] = (tmp >> 16) & 0xFFFF;
    9da4:	b1 40 10 00 	mov	#16,	0(r1)	;#0x0010
    9da8:	00 00 
    9daa:	0c 48       	mov	r8,	r12	;
    9dac:	0d 44       	mov	r4,	r13	;
    9dae:	0e 49       	mov	r9,	r14	;
    9db0:	0f 47       	mov	r7,	r15	;
    9db2:	86 12       	call	r6		;
    9db4:	8a 4c 02 00 	mov	r12,	2(r10)	;
    z[0] = tmp & 0xFFFF;
    9db8:	8a 48 00 00 	mov	r8,	0(r10)	;
}
    9dbc:	21 52       	add	#4,	r1	;r2 As==10
    9dbe:	30 40 68 d1 	br	#0xd168		;

00009dc2 <int48_to_64>:
    use where interrupt code could not see a half completed operation.
    \param y The destination 64 bit value, which is zeroed
    \param x A pointer to the source 48 bit value.
 */
static __inline__ int64_t int48_to_64(int16_t x[3])
{
    9dc2:	0a 12       	push	r10		;
    9dc4:	09 12       	push	r9		;
    9dc6:	08 12       	push	r8		;
    9dc8:	21 83       	decd	r1		;
    9dca:	0a 4c       	mov	r12,	r10	;
    int64_t y;

    y = x[2];
    9dcc:	18 4c 04 00 	mov	4(r12),	r8	;
    9dd0:	0c 48       	mov	r8,	r12	;
    9dd2:	b0 12 ec d1 	call	#53740		;#0xd1ec
    9dd6:	0f 4c       	mov	r12,	r15	;
    y <<= 16;
    9dd8:	39 40 14 cd 	mov	#52500,	r9	;#0xcd14
    9ddc:	b1 40 10 00 	mov	#16,	0(r1)	;#0x0010
    9de0:	00 00 
    9de2:	0c 48       	mov	r8,	r12	;
    9de4:	0d 4f       	mov	r15,	r13	;
    9de6:	0e 4f       	mov	r15,	r14	;
    9de8:	89 12       	call	r9		;
    y |= (uint16_t) x[1];
    9dea:	1c da 02 00 	bis	2(r10),	r12	;
    y <<= 16;
    9dee:	89 12       	call	r9		;
    y |= (uint16_t) x[0];
    return  y;
}
    9df0:	2c da       	bis	@r10,	r12	;
    9df2:	21 53       	incd	r1		;
    9df4:	30 40 70 d1 	br	#0xd170		;

00009df8 <int64_to_48>:
    use where interrupt code could not see a half completed operation.
    \param y A pointer to the destination 48 bit value.
    \param x The source 64 bit value, which is zeroed
 */
static __inline__ void int64_to_48(int16_t y[3], int64_t x)
{
    9df8:	0a 12       	push	r10		;
    9dfa:	09 12       	push	r9		;
    9dfc:	08 12       	push	r8		;
    9dfe:	07 12       	push	r7		;
    9e00:	06 12       	push	r6		;
    9e02:	05 12       	push	r5		;
    9e04:	21 83       	decd	r1		;
    9e06:	0a 4c       	mov	r12,	r10	;
    9e08:	19 41 10 00 	mov	16(r1),	r9	;0x00010
    9e0c:	15 41 12 00 	mov	18(r1),	r5	;0x00012
    9e10:	16 41 14 00 	mov	20(r1),	r6	;0x00014
    9e14:	17 41 16 00 	mov	22(r1),	r7	;0x00016
    y[2] = x >> 32;
    9e18:	38 40 90 cd 	mov	#52624,	r8	;#0xcd90
    9e1c:	b1 40 20 00 	mov	#32,	0(r1)	;#0x0020
    9e20:	00 00 
    9e22:	0c 49       	mov	r9,	r12	;
    9e24:	0d 45       	mov	r5,	r13	;
    9e26:	0e 46       	mov	r6,	r14	;
    9e28:	0f 47       	mov	r7,	r15	;
    9e2a:	88 12       	call	r8		;
    9e2c:	8a 4c 04 00 	mov	r12,	4(r10)	;
    y[1] = x >> 16;
    9e30:	b1 40 10 00 	mov	#16,	0(r1)	;#0x0010
    9e34:	00 00 
    9e36:	0c 49       	mov	r9,	r12	;
    9e38:	0d 45       	mov	r5,	r13	;
    9e3a:	0e 46       	mov	r6,	r14	;
    9e3c:	0f 47       	mov	r7,	r15	;
    9e3e:	88 12       	call	r8		;
    9e40:	8a 4c 02 00 	mov	r12,	2(r10)	;
    y[0] = x;
    9e44:	8a 49 00 00 	mov	r9,	0(r10)	;
}
    9e48:	21 53       	incd	r1		;
    9e4a:	30 40 6a d1 	br	#0xd16a		;

00009e4e <transfer48>:
    \param y A pointer to the destination 48 bit value.
    \param x A pointer to the source 48 bit value, which is zeroed
 */
static __inline__ void transfer48(int16_t y[3], int16_t x[3])
{
    y[2] = x[2];
    9e4e:	9c 4d 04 00 	mov	4(r13),	4(r12)	;
    9e52:	04 00 
    y[1] = x[1];
    9e54:	9c 4d 02 00 	mov	2(r13),	2(r12)	;
    9e58:	02 00 
    y[0] = x[0];
    9e5a:	ac 4d 00 00 	mov	@r13,	0(r12)	;
    x[0] =
    x[1] =
    x[2] = 0;
    9e5e:	8d 43 04 00 	mov	#0,	4(r13)	;r3 As==00
{
    y[2] = x[2];
    y[1] = x[1];
    y[0] = x[0];
    x[0] =
    x[1] =
    9e62:	8d 43 02 00 	mov	#0,	2(r13)	;r3 As==00
static __inline__ void transfer48(int16_t y[3], int16_t x[3])
{
    y[2] = x[2];
    y[1] = x[1];
    y[0] = x[0];
    x[0] =
    9e66:	8d 43 00 00 	mov	#0,	0(r13)	;r3 As==00
    x[1] =
    x[2] = 0;
}
    9e6a:	30 41       	ret			

00009e6c <assign48>:
    \param y A pointer to the destination 48 bit value.
    \param x A pointer to the source 48 bit value.
 */
static __inline__ void assign48(int16_t y[3], const int16_t x[3])
{
    y[2] = x[2];
    9e6c:	9c 4d 04 00 	mov	4(r13),	4(r12)	;
    9e70:	04 00 
    y[1] = x[1];
    9e72:	9c 4d 02 00 	mov	2(r13),	2(r12)	;
    9e76:	02 00 
    y[0] = x[0];
    9e78:	ac 4d 00 00 	mov	@r13,	0(r12)	;
}
    9e7c:	30 41       	ret			

00009e7e <clear48>:
    interrupts are already disabled.
    \param z A pointer to the 48 bit accumulator.
 */
static __inline__ void clear48(int16_t z[3])
{
    z[2] = 0;
    9e7e:	8c 43 04 00 	mov	#0,	4(r12)	;r3 As==00
    z[1] = 0;
    9e82:	8c 43 02 00 	mov	#0,	2(r12)	;r3 As==00
    z[0] = 0;
    9e86:	8c 43 00 00 	mov	#0,	0(r12)	;r3 As==00
}
    9e8a:	30 41       	ret			

00009e8c <accum48>:
    /* Accumulate a 32 bit integer value into a 48 bit one represented
       by a 3 element int16_t array */
#if defined(__MSP430__)  &&  defined(__GNUC__)
    int16_t y_ex;

    __asm__ __volatile__ (
    9e8c:	0f 43       	clr	r15		;
    9e8e:	0f 4e       	mov	r14,	r15	;
    9e90:	0f 5f       	rla	r15		;
    9e92:	0f 7f       	subc	r15,	r15	;
    9e94:	3f e3       	inv	r15		;
    9e96:	8c 5d 00 00 	add	r13,	0(r12)	;
    9e9a:	8c 6e 02 00 	addc	r14,	2(r12)	;
    9e9e:	8c 6f 04 00 	addc	r15,	4(r12)	;
    acc >>= 16;
    x[1] = acc;
    acc >>= 16;
    x[2] = acc;
#endif
}
    9ea2:	30 41       	ret			

00009ea4 <brief_pause>:
#endif

static void __inline__ brief_pause(unsigned int n)
{
    while (n > 0)
    9ea4:	0c 93       	cmp	#0,	r12	;r3 As==00
    9ea6:	04 24       	jz	$+10     	;abs 0x9eb0
    {
        n--;
    9ea8:	3c 53       	add	#-1,	r12	;r3 As==11
        __no_operation();
    9eaa:	03 43       	nop			
}
#endif

static void __inline__ brief_pause(unsigned int n)
{
    while (n > 0)
    9eac:	0c 93       	cmp	#0,	r12	;r3 As==00
    9eae:	fc 23       	jnz	$-6      	;abs 0x9ea8
    {
        n--;
        __no_operation();
    }
}
    9eb0:	30 41       	ret			

00009eb2 <restart_watchdog>:

static void __inline__ restart_watchdog(void)
{
#if defined(__MSP430__)
    WDTCTL = (WDTCTL & 0xFF) | WDTPW | WDTCNTCL;
    9eb2:	1c 42 20 01 	mov	&0x0120,r12	;0x0120
    9eb6:	3c f0 ff 00 	and	#255,	r12	;#0x00ff
    9eba:	3c d0 08 5a 	bis	#23048,	r12	;#0x5a08
    9ebe:	82 4c 20 01 	mov	r12,	&0x0120	;
#endif
}
    9ec2:	30 41       	ret			

00009ec4 <sqac64_24>:

#include <inttypes.h>
#include "emeter-toolkit.h"

void sqac64_24(int64_t *z, int32_t x)
{
    9ec4:	0a 12       	push	r10		;
    9ec6:	09 12       	push	r9		;
    9ec8:	08 12       	push	r8		;
    9eca:	07 12       	push	r7		;
    9ecc:	06 12       	push	r6		;
    9ece:	05 12       	push	r5		;
    9ed0:	07 4c       	mov	r12,	r7	;
    9ed2:	06 4e       	mov	r14,	r6	;
    *z += (int64_t) x*(int64_t) x;
    9ed4:	05 4d       	mov	r13,	r5	;
    9ed6:	0c 4e       	mov	r14,	r12	;
    9ed8:	b0 12 ec d1 	call	#53740		;#0xd1ec
    9edc:	0f 4c       	mov	r12,	r15	;
    9ede:	08 45       	mov	r5,	r8	;
    9ee0:	09 46       	mov	r6,	r9	;
    9ee2:	0a 4c       	mov	r12,	r10	;
    9ee4:	0b 4c       	mov	r12,	r11	;
    9ee6:	0c 45       	mov	r5,	r12	;
    9ee8:	0d 46       	mov	r6,	r13	;
    9eea:	0e 4f       	mov	r15,	r14	;
    9eec:	b0 12 36 cb 	call	#52022		;#0xcb36
    9ef0:	25 47       	mov	@r7,	r5	;
    9ef2:	16 47 02 00 	mov	2(r7),	r6	;
    9ef6:	18 47 04 00 	mov	4(r7),	r8	;
    9efa:	19 47 06 00 	mov	6(r7),	r9	;
    9efe:	0c 55       	add	r5,	r12	;
    9f00:	1a 43       	mov	#1,	r10	;r3 As==01
    9f02:	0c 95       	cmp	r5,	r12	;
    9f04:	01 28       	jnc	$+4      	;abs 0x9f08
    9f06:	0a 43       	clr	r10		;
    9f08:	0d 56       	add	r6,	r13	;
    9f0a:	1b 43       	mov	#1,	r11	;r3 As==01
    9f0c:	0d 96       	cmp	r6,	r13	;
    9f0e:	01 28       	jnc	$+4      	;abs 0x9f12
    9f10:	0b 43       	clr	r11		;
    9f12:	0a 5d       	add	r13,	r10	;
    9f14:	16 43       	mov	#1,	r6	;r3 As==01
    9f16:	0a 9d       	cmp	r13,	r10	;
    9f18:	01 28       	jnc	$+4      	;abs 0x9f1c
    9f1a:	06 43       	clr	r6		;
    9f1c:	0b d6       	bis	r6,	r11	;
    9f1e:	0e 58       	add	r8,	r14	;
    9f20:	1d 43       	mov	#1,	r13	;r3 As==01
    9f22:	0e 98       	cmp	r8,	r14	;
    9f24:	01 28       	jnc	$+4      	;abs 0x9f28
    9f26:	0d 43       	clr	r13		;
    9f28:	0b 5e       	add	r14,	r11	;
    9f2a:	18 43       	mov	#1,	r8	;r3 As==01
    9f2c:	0b 9e       	cmp	r14,	r11	;
    9f2e:	01 28       	jnc	$+4      	;abs 0x9f32
    9f30:	08 43       	clr	r8		;
    9f32:	0d d8       	bis	r8,	r13	;
    9f34:	0f 59       	add	r9,	r15	;
    9f36:	87 4c 00 00 	mov	r12,	0(r7)	;
    9f3a:	87 4a 02 00 	mov	r10,	2(r7)	;
    9f3e:	87 4b 04 00 	mov	r11,	4(r7)	;
    9f42:	0d 5f       	add	r15,	r13	;
    9f44:	87 4d 06 00 	mov	r13,	6(r7)	;
}
    9f48:	30 40 6a d1 	br	#0xd16a		;

00009f4c <CS_setupDCO>:
// DCO Frequency used for clock signal frequency calculations
//
//*****************************************************************************
#define CS_DCO_FREQ                                                    16384000

void CS_setupDCO(uint8_t mode) {
    9f4c:	3c f0 ff 00 	and	#255,	r12	;#0x00ff
    CSCTL0 &= ~(DCOR | DCOBYP);
    9f50:	f2 f0 fc ff 	and.b	#65532,	&0x0050	;#0xfffc
    9f54:	50 00 
    CSCTL0 |= mode;
    9f56:	c2 dc 50 00 	bis.b	r12,	&0x0050	;

    // Set DCO calibration using TLV
    if(mode == CS_INTERNAL_RESISTOR)
    9f5a:	0c 93       	cmp	#0,	r12	;r3 As==00
    9f5c:	08 20       	jnz	$+18     	;abs 0x9f6e
    {
        CSIRFCAL = HWREG8(TLV_START + TLV_CAL_CSIRFCAL);
    9f5e:	d2 42 d4 13 	mov.b	&0x13d4,&0x0052	;0x13d4
    9f62:	52 00 
        CSIRTCAL = HWREG8(TLV_START + TLV_CAL_CSIRTCAL);
    9f64:	d2 42 d5 13 	mov.b	&0x13d5,&0x0053	;0x13d5
    9f68:	53 00 
    9f6a:	30 40 7e 9f 	br	#0x9f7e		;
    }
    else if(mode == CS_EXTERNAL_RESISTOR)
    9f6e:	1c 93       	cmp	#1,	r12	;r3 As==01
    9f70:	06 20       	jnz	$+14     	;abs 0x9f7e
    {
        CSERFCAL = HWREG8(TLV_START + TLV_CAL_CSERFCAL);
    9f72:	d2 42 d6 13 	mov.b	&0x13d6,&0x0054	;0x13d6
    9f76:	54 00 
        CSERTCAL = HWREG8(TLV_START + TLV_CAL_CSERTCAL);
    9f78:	d2 42 d7 13 	mov.b	&0x13d7,&0x0055	;0x13d7
    9f7c:	55 00 
    }
}
    9f7e:	30 41       	ret			

00009f80 <CS_initClockSignal>:

void CS_initClockSignal(uint8_t clockSource,
                        uint8_t clockSourceDivider) {
    9f80:	3d f0 ff 00 	and	#255,	r13	;#0x00ff
    uint8_t clearBits = DIVM_7;

    if(clockSource == CS_SMCLK)
    9f84:	6c 93       	cmp.b	#2,	r12	;r3 As==10
    9f86:	0a 20       	jnz	$+22     	;abs 0x9f9c
    {
        clockSourceDivider = clockSourceDivider << 4;
    9f88:	4d 5d       	rla.b	r13		;
    9f8a:	4d 5d       	rla.b	r13		;
    9f8c:	4d 5d       	rla.b	r13		;
    9f8e:	4d 5d       	rla.b	r13		;
    9f90:	3d f0 ff 00 	and	#255,	r13	;#0x00ff
        clearBits = clearBits << 4;
    9f94:	3c 40 70 00 	mov	#112,	r12	;#0x0070
    9f98:	30 40 a0 9f 	br	#0x9fa0		;
    }
}

void CS_initClockSignal(uint8_t clockSource,
                        uint8_t clockSourceDivider) {
    uint8_t clearBits = DIVM_7;
    9f9c:	3c 40 07 00 	mov	#7,	r12	;
    {
        clockSourceDivider = clockSourceDivider << 4;
        clearBits = clearBits << 4;
    }

    CSCTL1 = (CSCTL1 & ~(clearBits)) | clockSourceDivider;
    9fa0:	5e 42 51 00 	mov.b	&0x0051,r14	;0x0051
    9fa4:	4e cc       	bic.b	r12,	r14	;
    9fa6:	4c 4e       	mov.b	r14,	r12	;
    9fa8:	4c dd       	bis.b	r13,	r12	;
    9faa:	c2 4c 51 00 	mov.b	r12,	&0x0051	;
}
    9fae:	30 41       	ret			

00009fb0 <CS_getACLK>:

uint32_t CS_getACLK(void) {
    return(32000);
}
    9fb0:	3c 40 00 7d 	mov	#32000,	r12	;#0x7d00
    9fb4:	0d 43       	clr	r13		;
    9fb6:	30 41       	ret			

00009fb8 <CS_getSMCLK>:

uint32_t CS_getSMCLK(void) {
    uint8_t divider = (CSCTL1 & 0x70) >> 4;
    9fb8:	5c 42 51 00 	mov.b	&0x0051,r12	;0x0051
    9fbc:	7c f0 70 00 	and.b	#112,	r12	;#0x0070
    9fc0:	3c f0 70 00 	and	#112,	r12	;#0x0070
    9fc4:	b0 12 02 d2 	call	#53762		;#0xd202
    return(CS_DCO_FREQ >> divider);
    9fc8:	3c f0 ff 00 	and	#255,	r12	;#0x00ff
    9fcc:	0e 4c       	mov	r12,	r14	;
    9fce:	3e b0 00 80 	bit	#32768,	r14	;#0x8000
    9fd2:	0f 7f       	subc	r15,	r15	;
    9fd4:	3f e3       	inv	r15		;
    9fd6:	0c 43       	clr	r12		;
    9fd8:	3d 40 fa 00 	mov	#250,	r13	;#0x00fa
    9fdc:	b0 12 5a d2 	call	#53850		;#0xd25a
}
    9fe0:	30 41       	ret			

00009fe2 <CS_getMCLK>:

uint32_t CS_getMCLK(void) {
    uint8_t divider = (CSCTL1 & 0x07);
    9fe2:	5e 42 51 00 	mov.b	&0x0051,r14	;0x0051
    9fe6:	7e f0 07 00 	and.b	#7,	r14	;
    return(CS_DCO_FREQ >> divider);
    9fea:	3e f0 ff 00 	and	#255,	r14	;#0x00ff
    9fee:	3e b0 00 80 	bit	#32768,	r14	;#0x8000
    9ff2:	0f 7f       	subc	r15,	r15	;
    9ff4:	3f e3       	inv	r15		;
    9ff6:	0c 43       	clr	r12		;
    9ff8:	3d 40 fa 00 	mov	#250,	r13	;#0x00fa
    9ffc:	b0 12 5a d2 	call	#53850		;#0xd25a
}
    a000:	30 41       	ret			

0000a002 <CS_getFaultFlagStatus>:

uint8_t CS_getFaultFlagStatus(uint8_t mask) {
    return (CSCTL0 & mask);
}
    a002:	5c f2 50 00 	and.b	&0x0050,r12	;0x0050
    a006:	30 41       	ret			

0000a008 <EUSCI_A_SPI_initMaster>:

#include <assert.h>

void EUSCI_A_SPI_initMaster(uint16_t baseAddress,
                            EUSCI_A_SPI_initMasterParam *param)
{
    a008:	0a 12       	push	r10		;
    a00a:	09 12       	push	r9		;
    a00c:	08 12       	push	r8		;
    a00e:	0a 4c       	mov	r12,	r10	;
    a010:	09 4d       	mov	r13,	r9	;
    //Disable the USCI Module
    HWREG16(baseAddress + OFS_UCAxCTLW0) |= UCSWRST;
    a012:	9c d3 00 00 	bis	#1,	0(r12)	;r3 As==01

    //Reset OFS_UCAxCTLW0 values
    HWREG16(baseAddress + OFS_UCAxCTLW0) &= ~(UCCKPH + UCCKPL + UC7BIT + UCMSB +
    a016:	bc f0 ff 00 	and	#255,	0(r12)	;#0x00ff
    a01a:	00 00 
                                              UCMST + UCMODE_3 + UCSYNC);

    //Reset OFS_UCAxCTLW0 values
    HWREG16(baseAddress + OFS_UCAxCTLW0) &= ~(UCSSEL_3);
    a01c:	bc f0 3f ff 	and	#65343,	0(r12)	;#0xff3f
    a020:	00 00 

    //Select Clock
    HWREG16(baseAddress + OFS_UCAxCTLW0) |= param->selectClockSource;
    a022:	6c 4d       	mov.b	@r13,	r12	;
    a024:	8a dc 00 00 	bis	r12,	0(r10)	;

    HWREG16(baseAddress + OFS_UCAxBRW) =
    a028:	08 4a       	mov	r10,	r8	;
    a02a:	38 50 06 00 	add	#6,	r8	;
        (uint16_t)(param->clockSourceFrequency / param->desiredSpiClock);
    a02e:	1c 4d 02 00 	mov	2(r13),	r12	;
    a032:	1d 4d 04 00 	mov	4(r13),	r13	;
    a036:	1e 49 06 00 	mov	6(r9),	r14	;
    a03a:	1f 49 08 00 	mov	8(r9),	r15	;
    a03e:	b0 12 86 d0 	call	#53382		;#0xd086
    HWREG16(baseAddress + OFS_UCAxCTLW0) &= ~(UCSSEL_3);

    //Select Clock
    HWREG16(baseAddress + OFS_UCAxCTLW0) |= param->selectClockSource;

    HWREG16(baseAddress + OFS_UCAxBRW) =
    a042:	88 4c 00 00 	mov	r12,	0(r8)	;
     * UCMST = Master mode
     * UCSYNC = Synchronous mode
     * UCMODE_0 = 3-pin SPI
     */
    HWREG16(baseAddress + OFS_UCAxCTLW0) |= (
        param->msbFirst +
    a046:	1c 49 0a 00 	mov	10(r9),	r12	;0x0000a
    a04a:	1c 59 0c 00 	add	12(r9),	r12	;0x0000c
    a04e:	3c 50 00 09 	add	#2304,	r12	;#0x0900
    a052:	1c 59 0e 00 	add	14(r9),	r12	;0x0000e
        param->clockPhase +
        param->clockPolarity +
        UCMST +
        UCSYNC +
    a056:	1c 59 10 00 	add	16(r9),	r12	;0x00010
     * Clock phase select, polarity, msb
     * UCMST = Master mode
     * UCSYNC = Synchronous mode
     * UCMODE_0 = 3-pin SPI
     */
    HWREG16(baseAddress + OFS_UCAxCTLW0) |= (
    a05a:	8a dc 00 00 	bis	r12,	0(r10)	;
        UCMST +
        UCSYNC +
        param->spiMode
        );
    //No modulation
    HWREG16(baseAddress + OFS_UCAxMCTLW) = 0;
    a05e:	8a 43 08 00 	mov	#0,	8(r10)	;r3 As==00
}
    a062:	30 40 70 d1 	br	#0xd170		;

0000a066 <EUSCI_A_SPI_select4PinFunctionality>:

void EUSCI_A_SPI_select4PinFunctionality(uint16_t baseAddress,
                                         uint8_t select4PinFunctionality)
{
    a066:	3d f0 ff 00 	and	#255,	r13	;#0x00ff
    HWREG16(baseAddress + OFS_UCAxCTLW0) &= ~UCSTEM;
    a06a:	ac c3 00 00 	bic	#2,	0(r12)	;r3 As==10
    HWREG16(baseAddress + OFS_UCAxCTLW0) |= select4PinFunctionality;
    a06e:	8c dd 00 00 	bis	r13,	0(r12)	;
}
    a072:	30 41       	ret			

0000a074 <EUSCI_A_SPI_changeMasterClock>:

void EUSCI_A_SPI_changeMasterClock(uint16_t baseAddress,
                                   EUSCI_A_SPI_changeMasterClockParam *param)
{
    a074:	0a 12       	push	r10		;
    a076:	09 12       	push	r9		;
    a078:	0a 4c       	mov	r12,	r10	;
    a07a:	0e 4d       	mov	r13,	r14	;
    //Disable the USCI Module
    HWREG16(baseAddress + OFS_UCAxCTLW0) |= UCSWRST;
    a07c:	9c d3 00 00 	bis	#1,	0(r12)	;r3 As==01

    HWREG16(baseAddress + OFS_UCAxBRW) =
    a080:	09 4c       	mov	r12,	r9	;
    a082:	39 50 06 00 	add	#6,	r9	;
        (uint16_t)(param->clockSourceFrequency / param->desiredSpiClock);
    a086:	2c 4d       	mov	@r13,	r12	;
    a088:	1d 4d 02 00 	mov	2(r13),	r13	;
    a08c:	1f 4e 06 00 	mov	6(r14),	r15	;
    a090:	1e 4e 04 00 	mov	4(r14),	r14	;
    a094:	b0 12 86 d0 	call	#53382		;#0xd086
                                   EUSCI_A_SPI_changeMasterClockParam *param)
{
    //Disable the USCI Module
    HWREG16(baseAddress + OFS_UCAxCTLW0) |= UCSWRST;

    HWREG16(baseAddress + OFS_UCAxBRW) =
    a098:	89 4c 00 00 	mov	r12,	0(r9)	;
        (uint16_t)(param->clockSourceFrequency / param->desiredSpiClock);

    //Reset the UCSWRST bit to enable the USCI Module
    HWREG16(baseAddress + OFS_UCAxCTLW0) &= ~(UCSWRST);
    a09c:	9a c3 00 00 	bic	#1,	0(r10)	;r3 As==01
}
    a0a0:	30 40 72 d1 	br	#0xd172		;

0000a0a4 <EUSCI_A_SPI_initSlave>:

void EUSCI_A_SPI_initSlave(uint16_t baseAddress,
                           EUSCI_A_SPI_initSlaveParam *param)
{
    //Disable USCI Module
    HWREG16(baseAddress + OFS_UCAxCTLW0) |= UCSWRST;
    a0a4:	9c d3 00 00 	bis	#1,	0(r12)	;r3 As==01

    //Reset OFS_UCAxCTLW0 register
    HWREG16(baseAddress + OFS_UCAxCTLW0) &= ~(UCMSB +
    a0a8:	bc f0 ff 01 	and	#511,	0(r12)	;#0x01ff
    a0ac:	00 00 
                                              UCCKPH +
                                              UCMODE_3
                                              );

    //Clock polarity, phase select, msbFirst, SYNC, Mode0
    HWREG16(baseAddress + OFS_UCAxCTLW0) |= (param->clockPhase +
    a0ae:	1e 4d 02 00 	mov	2(r13),	r14	;
    a0b2:	1e 5d 04 00 	add	4(r13),	r14	;
    a0b6:	3e 50 00 01 	add	#256,	r14	;#0x0100
    a0ba:	2e 5d       	add	@r13,	r14	;
                                             param->clockPolarity +
                                             param->msbFirst +
                                             UCSYNC +
    a0bc:	1e 5d 06 00 	add	6(r13),	r14	;
                                              UCCKPH +
                                              UCMODE_3
                                              );

    //Clock polarity, phase select, msbFirst, SYNC, Mode0
    HWREG16(baseAddress + OFS_UCAxCTLW0) |= (param->clockPhase +
    a0c0:	8c de 00 00 	bis	r14,	0(r12)	;
                                             param->clockPolarity +
                                             param->msbFirst +
                                             UCSYNC +
                                             param->spiMode
                                             );
}
    a0c4:	30 41       	ret			

0000a0c6 <EUSCI_A_SPI_changeClockPhasePolarity>:
void EUSCI_A_SPI_changeClockPhasePolarity(uint16_t baseAddress,
                                          uint16_t clockPhase,
                                          uint16_t clockPolarity)
{
    //Disable the USCI Module
    HWREG16(baseAddress + OFS_UCAxCTLW0) |= UCSWRST;
    a0c6:	9c d3 00 00 	bis	#1,	0(r12)	;r3 As==01

    HWREG16(baseAddress + OFS_UCAxCTLW0) &= ~(UCCKPH + UCCKPL);
    a0ca:	bc f0 ff 3f 	and	#16383,	0(r12)	;#0x3fff
    a0ce:	00 00 

    HWREG16(baseAddress + OFS_UCAxCTLW0) |= (
        clockPhase +
    a0d0:	0d 5e       	add	r14,	r13	;
    //Disable the USCI Module
    HWREG16(baseAddress + OFS_UCAxCTLW0) |= UCSWRST;

    HWREG16(baseAddress + OFS_UCAxCTLW0) &= ~(UCCKPH + UCCKPL);

    HWREG16(baseAddress + OFS_UCAxCTLW0) |= (
    a0d2:	8c dd 00 00 	bis	r13,	0(r12)	;
        clockPhase +
        clockPolarity
        );

    //Reset the UCSWRST bit to enable the USCI Module
    HWREG16(baseAddress + OFS_UCAxCTLW0) &= ~(UCSWRST);
    a0d6:	9c c3 00 00 	bic	#1,	0(r12)	;r3 As==01
}
    a0da:	30 41       	ret			

0000a0dc <EUSCI_A_SPI_transmitData>:

void EUSCI_A_SPI_transmitData(uint16_t baseAddress,
                              uint8_t transmitData)
{
    HWREG16(baseAddress + OFS_UCAxTXBUF) = transmitData;
    a0dc:	3d f0 ff 00 	and	#255,	r13	;#0x00ff
    a0e0:	8c 4d 0e 00 	mov	r13,	14(r12)	; 0x000e
}
    a0e4:	30 41       	ret			

0000a0e6 <EUSCI_A_SPI_receiveData>:

uint8_t EUSCI_A_SPI_receiveData(uint16_t baseAddress)
{
    return (HWREG16(baseAddress + OFS_UCAxRXBUF));
    a0e6:	1c 4c 0c 00 	mov	12(r12),r12	;0x0000c
}
    a0ea:	30 41       	ret			

0000a0ec <EUSCI_A_SPI_enableInterrupt>:

void EUSCI_A_SPI_enableInterrupt(uint16_t baseAddress,
                                 uint8_t mask)
{
    a0ec:	3d f0 ff 00 	and	#255,	r13	;#0x00ff
    HWREG16(baseAddress + OFS_UCAxIE) |= mask;
    a0f0:	8c dd 1a 00 	bis	r13,	26(r12)	; 0x001a
}
    a0f4:	30 41       	ret			

0000a0f6 <EUSCI_A_SPI_disableInterrupt>:

void EUSCI_A_SPI_disableInterrupt(uint16_t baseAddress,
                                  uint8_t mask)
{
    a0f6:	3d f0 ff 00 	and	#255,	r13	;#0x00ff
    HWREG16(baseAddress + OFS_UCAxIE) &= ~mask;
    a0fa:	8c cd 1a 00 	bic	r13,	26(r12)	; 0x001a
}
    a0fe:	30 41       	ret			

0000a100 <EUSCI_A_SPI_getInterruptStatus>:

uint8_t EUSCI_A_SPI_getInterruptStatus(uint16_t baseAddress,
                                       uint8_t mask)
{
    return (HWREG16(baseAddress + OFS_UCAxIFG) & mask);
    a100:	1c 4c 1c 00 	mov	28(r12),r12	;0x0001c
}
    a104:	4c fd       	and.b	r13,	r12	;
    a106:	30 41       	ret			

0000a108 <EUSCI_A_SPI_clearInterrupt>:

void EUSCI_A_SPI_clearInterrupt(uint16_t baseAddress,
                                uint8_t mask)
{
    a108:	3d f0 ff 00 	and	#255,	r13	;#0x00ff
    HWREG16(baseAddress + OFS_UCAxIFG) &= ~mask;
    a10c:	8c cd 1c 00 	bic	r13,	28(r12)	; 0x001c
}
    a110:	30 41       	ret			

0000a112 <EUSCI_A_SPI_enable>:

void EUSCI_A_SPI_enable(uint16_t baseAddress)
{
    //Reset the UCSWRST bit to enable the USCI Module
    HWREG16(baseAddress + OFS_UCAxCTLW0) &= ~(UCSWRST);
    a112:	9c c3 00 00 	bic	#1,	0(r12)	;r3 As==01
}
    a116:	30 41       	ret			

0000a118 <EUSCI_A_SPI_disable>:

void EUSCI_A_SPI_disable(uint16_t baseAddress)
{
    //Set the UCSWRST bit to disable the USCI Module
    HWREG16(baseAddress + OFS_UCAxCTLW0) |= UCSWRST;
    a118:	9c d3 00 00 	bis	#1,	0(r12)	;r3 As==01
}
    a11c:	30 41       	ret			

0000a11e <EUSCI_A_SPI_getReceiveBufferAddress>:

uint32_t EUSCI_A_SPI_getReceiveBufferAddress(uint16_t baseAddress)
{
    return (baseAddress + OFS_UCAxRXBUF);
}
    a11e:	3c 50 0c 00 	add	#12,	r12	;#0x000c
    a122:	0d 43       	clr	r13		;
    a124:	30 41       	ret			

0000a126 <EUSCI_A_SPI_getTransmitBufferAddress>:

uint32_t EUSCI_A_SPI_getTransmitBufferAddress(uint16_t baseAddress)
{
    return (baseAddress + OFS_UCAxTXBUF);
}
    a126:	3c 50 0e 00 	add	#14,	r12	;#0x000e
    a12a:	0d 43       	clr	r13		;
    a12c:	30 41       	ret			

0000a12e <EUSCI_A_SPI_isBusy>:

uint16_t EUSCI_A_SPI_isBusy(uint16_t baseAddress)
{
    //Return the bus busy status.
    return (HWREG16(baseAddress + OFS_UCAxSTATW) & UCBUSY);
}
    a12e:	1c 4c 0a 00 	mov	10(r12),r12	;0x0000a
    a132:	1c f3       	and	#1,	r12	;r3 As==01
    a134:	30 41       	ret			

0000a136 <EUSCI_A_UART_init>:
                       EUSCI_A_UART_initParam *param)
{
    bool retVal = STATUS_SUCCESS;

    //Disable the USCI Module
    HWREG16(baseAddress + OFS_UCAxCTLW0) |= UCSWRST;
    a136:	9c d3 00 00 	bis	#1,	0(r12)	;r3 As==01

    //Clock source select
    HWREG16(baseAddress + OFS_UCAxCTLW0) &= ~UCSSEL_3;
    a13a:	bc f0 3f ff 	and	#65343,	0(r12)	;#0xff3f
    a13e:	00 00 
    HWREG16(baseAddress + OFS_UCAxCTLW0) |= param->selectClockSource;
    a140:	6e 4d       	mov.b	@r13,	r14	;
    a142:	8c de 00 00 	bis	r14,	0(r12)	;

    //MSB, LSB select
    HWREG16(baseAddress + OFS_UCAxCTLW0) &= ~UCMSB;
    a146:	bc f0 ff df 	and	#57343,	0(r12)	;#0xdfff
    a14a:	00 00 
    HWREG16(baseAddress + OFS_UCAxCTLW0) |= param->msborLsbFirst;
    a14c:	9c dd 08 00 	bis	8(r13),	0(r12)	;
    a150:	00 00 

    //UCSPB = 0(1 stop bit) OR 1(2 stop bits)
    HWREG16(baseAddress + OFS_UCAxCTLW0) &= ~UCSPB;
    a152:	bc f0 ff f7 	and	#63487,	0(r12)	;#0xf7ff
    a156:	00 00 
    HWREG16(baseAddress + OFS_UCAxCTLW0) |= param->numberofStopBits;
    a158:	9c dd 0a 00 	bis	10(r13),0(r12)	;0x0000a
    a15c:	00 00 

    //Parity
    switch(param->parity)
    a15e:	5e 4d 06 00 	mov.b	6(r13),	r14	;
    a162:	5e 93       	cmp.b	#1,	r14	;r3 As==01
    a164:	0b 24       	jz	$+24     	;abs 0xa17c
    a166:	4e 93       	cmp.b	#0,	r14	;r3 As==00
    a168:	04 24       	jz	$+10     	;abs 0xa172
    a16a:	6e 93       	cmp.b	#2,	r14	;r3 As==10
    a16c:	0f 24       	jz	$+32     	;abs 0xa18c
    a16e:	30 40 98 a1 	br	#0xa198		;
    {
    case EUSCI_A_UART_NO_PARITY:
        //No Parity
        HWREG16(baseAddress + OFS_UCAxCTLW0) &= ~UCPEN;
    a172:	bc f0 ff 7f 	and	#32767,	0(r12)	;#0x7fff
    a176:	00 00 
        break;
    a178:	30 40 98 a1 	br	#0xa198		;
    case EUSCI_A_UART_ODD_PARITY:
        //Odd Parity
        HWREG16(baseAddress + OFS_UCAxCTLW0) |= UCPEN;
    a17c:	bc d0 00 80 	bis	#32768,	0(r12)	;#0x8000
    a180:	00 00 
        HWREG16(baseAddress + OFS_UCAxCTLW0) &= ~UCPAR;
    a182:	bc f0 ff bf 	and	#49151,	0(r12)	;#0xbfff
    a186:	00 00 
        break;
    a188:	30 40 98 a1 	br	#0xa198		;
    case EUSCI_A_UART_EVEN_PARITY:
        //Even Parity
        HWREG16(baseAddress + OFS_UCAxCTLW0) |= UCPEN;
    a18c:	bc d0 00 80 	bis	#32768,	0(r12)	;#0x8000
    a190:	00 00 
        HWREG16(baseAddress + OFS_UCAxCTLW0) |= UCPAR;
    a192:	bc d0 00 40 	bis	#16384,	0(r12)	;#0x4000
    a196:	00 00 
        break;
    }

    //BaudRate Control Register
    HWREG16(baseAddress + OFS_UCAxBRW) = param->clockPrescalar;
    a198:	9c 4d 02 00 	mov	2(r13),	6(r12)	;
    a19c:	06 00 
    //Modulation Control Register
    HWREG16(baseAddress + OFS_UCAxMCTLW) = ((param->secondModReg << 8)
    a19e:	5e 4d 05 00 	mov.b	5(r13),	r14	;
    a1a2:	0e 5e       	rla	r14		;
    a1a4:	0e 5e       	rla	r14		;
    a1a6:	0e 5e       	rla	r14		;
    a1a8:	0e 5e       	rla	r14		;
                                            + (param->firstModReg <<
    a1aa:	5f 4d 04 00 	mov.b	4(r13),	r15	;
    a1ae:	0e 5f       	add	r15,	r14	;
    a1b0:	0e 5e       	rla	r14		;
    a1b2:	0e 5e       	rla	r14		;
    a1b4:	0e 5e       	rla	r14		;
    a1b6:	0e 5e       	rla	r14		;
    4) + param->overSampling);
    a1b8:	5f 4d 0e 00 	mov.b	14(r13),r15	;0x0000e
    }

    //BaudRate Control Register
    HWREG16(baseAddress + OFS_UCAxBRW) = param->clockPrescalar;
    //Modulation Control Register
    HWREG16(baseAddress + OFS_UCAxMCTLW) = ((param->secondModReg << 8)
    a1bc:	0e 5f       	add	r15,	r14	;
    a1be:	8c 4e 08 00 	mov	r14,	8(r12)	;
                                            + (param->firstModReg <<
    4) + param->overSampling);

    //Asynchronous mode & 8 bit character select & clear mode
    HWREG16(baseAddress + OFS_UCAxCTLW0) &= ~(UCSYNC +
    a1c2:	bc f0 ff e8 	and	#59647,	0(r12)	;#0xe8ff
    a1c6:	00 00 
                                              UC7BIT +
                                              UCMODE_3
                                              );

    //Configure  UART mode.
    HWREG16(baseAddress + OFS_UCAxCTLW0) |= param->uartMode;
    a1c8:	9c dd 0c 00 	bis	12(r13),0(r12)	;0x0000c
    a1cc:	00 00 

    //Reset UCRXIE, UCBRKIE, UCDORM, UCTXADDR, UCTXBRK
    HWREG16(baseAddress + OFS_UCAxCTLW0) &= ~(UCRXEIE + UCBRKIE + UCDORM +
    a1ce:	bc f0 c1 ff 	and	#65473,	0(r12)	;#0xffc1
    a1d2:	00 00 
                                              UCTXADDR + UCTXBRK
                                              );
    return (retVal);
}
    a1d4:	5c 43       	mov.b	#1,	r12	;r3 As==01
    a1d6:	30 41       	ret			

0000a1d8 <EUSCI_A_UART_transmitData>:

void EUSCI_A_UART_transmitData(uint16_t baseAddress,
                               uint8_t transmitData)
{
    a1d8:	3d f0 ff 00 	and	#255,	r13	;#0x00ff
    //If interrupts are not used, poll for flags
    if(!(HWREG16(baseAddress + OFS_UCAxIE) & UCTXIE))
    a1dc:	ac b3 1a 00 	bit	#2,	26(r12)	;r3 As==10, 0x001a
    a1e0:	06 20       	jnz	$+14     	;abs 0xa1ee
    {
        //Poll for transmit interrupt flag
        while(!(HWREG16(baseAddress + OFS_UCAxIFG) & UCTXIFG))
    a1e2:	0e 4c       	mov	r12,	r14	;
    a1e4:	3e 50 1c 00 	add	#28,	r14	;#0x001c
    a1e8:	ae b3 00 00 	bit	#2,	0(r14)	;r3 As==10
    a1ec:	fd 27       	jz	$-4      	;abs 0xa1e8
        {
            ;
        }
    }

    HWREG16(baseAddress + OFS_UCAxTXBUF) = transmitData;
    a1ee:	8c 4d 0e 00 	mov	r13,	14(r12)	; 0x000e
}
    a1f2:	30 41       	ret			

0000a1f4 <EUSCI_A_UART_receiveData>:

uint8_t EUSCI_A_UART_receiveData(uint16_t baseAddress)
{
    //If interrupts are not used, poll for flags
    if(!(HWREG16(baseAddress + OFS_UCAxIE) & UCRXIE))
    a1f4:	9c b3 1a 00 	bit	#1,	26(r12)	;r3 As==01, 0x001a
    a1f8:	06 20       	jnz	$+14     	;abs 0xa206
    {
        //Poll for receive interrupt flag
        while(!(HWREG16(baseAddress + OFS_UCAxIFG) & UCRXIFG))
    a1fa:	0d 4c       	mov	r12,	r13	;
    a1fc:	3d 50 1c 00 	add	#28,	r13	;#0x001c
    a200:	9d b3 00 00 	bit	#1,	0(r13)	;r3 As==01
    a204:	fd 27       	jz	$-4      	;abs 0xa200
        {
            ;
        }
    }

    return (HWREG16(baseAddress + OFS_UCAxRXBUF));
    a206:	1c 4c 0c 00 	mov	12(r12),r12	;0x0000c
}
    a20a:	30 41       	ret			

0000a20c <EUSCI_A_UART_enableInterrupt>:

void EUSCI_A_UART_enableInterrupt(uint16_t baseAddress,
                                  uint8_t mask)
{
    a20c:	3d f0 ff 00 	and	#255,	r13	;#0x00ff
    locMask = (mask & (EUSCI_A_UART_RECEIVE_INTERRUPT
                       | EUSCI_A_UART_TRANSMIT_INTERRUPT
                       | EUSCI_A_UART_STARTBIT_INTERRUPT
                       | EUSCI_A_UART_TRANSMIT_COMPLETE_INTERRUPT));

    HWREG16(baseAddress + OFS_UCAxIE) |= locMask;
    a210:	0e 4d       	mov	r13,	r14	;
    a212:	3e f0 0f 00 	and	#15,	r14	;#0x000f
    a216:	8c de 1a 00 	bis	r14,	26(r12)	; 0x001a

    locMask = (mask & (EUSCI_A_UART_RECEIVE_ERRONEOUSCHAR_INTERRUPT
                       | EUSCI_A_UART_BREAKCHAR_INTERRUPT));
    HWREG16(baseAddress + OFS_UCAxCTLW0) |= locMask;
    a21a:	3d f0 30 00 	and	#48,	r13	;#0x0030
    a21e:	8c dd 00 00 	bis	r13,	0(r12)	;
}
    a222:	30 41       	ret			

0000a224 <EUSCI_A_UART_disableInterrupt>:

void EUSCI_A_UART_disableInterrupt(uint16_t baseAddress,
                                   uint8_t mask)
{
    a224:	3d f0 ff 00 	and	#255,	r13	;#0x00ff

    locMask = (mask & (EUSCI_A_UART_RECEIVE_INTERRUPT
                       | EUSCI_A_UART_TRANSMIT_INTERRUPT
                       | EUSCI_A_UART_STARTBIT_INTERRUPT
                       | EUSCI_A_UART_TRANSMIT_COMPLETE_INTERRUPT));
    HWREG16(baseAddress + OFS_UCAxIE) &= ~locMask;
    a228:	0e 4d       	mov	r13,	r14	;
    a22a:	3e f0 0f 00 	and	#15,	r14	;#0x000f
    a22e:	8c ce 1a 00 	bic	r14,	26(r12)	; 0x001a

    locMask = (mask & (EUSCI_A_UART_RECEIVE_ERRONEOUSCHAR_INTERRUPT
                       | EUSCI_A_UART_BREAKCHAR_INTERRUPT));
    HWREG16(baseAddress + OFS_UCAxCTLW0) &= ~locMask;
    a232:	3d f0 30 00 	and	#48,	r13	;#0x0030
    a236:	8c cd 00 00 	bic	r13,	0(r12)	;
}
    a23a:	30 41       	ret			

0000a23c <EUSCI_A_UART_getInterruptStatus>:

uint8_t EUSCI_A_UART_getInterruptStatus(uint16_t baseAddress,
                                        uint8_t mask)
{
    return (HWREG16(baseAddress + OFS_UCAxIFG) & mask);
    a23c:	1c 4c 1c 00 	mov	28(r12),r12	;0x0001c
}
    a240:	4c fd       	and.b	r13,	r12	;
    a242:	30 41       	ret			

0000a244 <EUSCI_A_UART_clearInterrupt>:

void EUSCI_A_UART_clearInterrupt(uint16_t baseAddress,
                                 uint8_t mask)
{
    a244:	3d f0 ff 00 	and	#255,	r13	;#0x00ff
    //Clear the UART interrupt source.
    HWREG16(baseAddress + OFS_UCAxIFG) &= ~(mask);
    a248:	8c cd 1c 00 	bic	r13,	28(r12)	; 0x001c
}
    a24c:	30 41       	ret			

0000a24e <EUSCI_A_UART_enable>:

void EUSCI_A_UART_enable(uint16_t baseAddress)
{
    //Reset the UCSWRST bit to enable the USCI Module
    HWREG16(baseAddress + OFS_UCAxCTLW0) &= ~(UCSWRST);
    a24e:	9c c3 00 00 	bic	#1,	0(r12)	;r3 As==01
}
    a252:	30 41       	ret			

0000a254 <EUSCI_A_UART_disable>:

void EUSCI_A_UART_disable(uint16_t baseAddress)
{
    //Set the UCSWRST bit to disable the USCI Module
    HWREG16(baseAddress + OFS_UCAxCTLW0) |= UCSWRST;
    a254:	9c d3 00 00 	bis	#1,	0(r12)	;r3 As==01
}
    a258:	30 41       	ret			

0000a25a <EUSCI_A_UART_queryStatusFlags>:

uint8_t EUSCI_A_UART_queryStatusFlags(uint16_t baseAddress,
                                      uint8_t mask)
{
    return (HWREG16(baseAddress + OFS_UCAxSTATW) & mask);
    a25a:	1c 4c 0a 00 	mov	10(r12),r12	;0x0000a
}
    a25e:	4c fd       	and.b	r13,	r12	;
    a260:	30 41       	ret			

0000a262 <EUSCI_A_UART_setDormant>:

void EUSCI_A_UART_setDormant(uint16_t baseAddress)
{
    HWREG16(baseAddress + OFS_UCAxCTLW0) |= UCDORM;
    a262:	bc d2 00 00 	bis	#8,	0(r12)	;r2 As==11
}
    a266:	30 41       	ret			

0000a268 <EUSCI_A_UART_resetDormant>:

void EUSCI_A_UART_resetDormant(uint16_t baseAddress)
{
    HWREG16(baseAddress + OFS_UCAxCTLW0) &= ~UCDORM;
    a268:	bc c2 00 00 	bic	#8,	0(r12)	;r2 As==11
}
    a26c:	30 41       	ret			

0000a26e <EUSCI_A_UART_transmitAddress>:

void EUSCI_A_UART_transmitAddress(uint16_t baseAddress,
                                  uint8_t transmitAddress)
{
    //Set UCTXADDR bit
    HWREG16(baseAddress + OFS_UCAxCTLW0) |= UCTXADDR;
    a26e:	ac d2 00 00 	bis	#4,	0(r12)	;r2 As==10

    //Place next byte to be sent into the transmit buffer
    HWREG16(baseAddress + OFS_UCAxTXBUF) = transmitAddress;
    a272:	3d f0 ff 00 	and	#255,	r13	;#0x00ff
    a276:	8c 4d 0e 00 	mov	r13,	14(r12)	; 0x000e
}
    a27a:	30 41       	ret			

0000a27c <EUSCI_A_UART_transmitBreak>:

void EUSCI_A_UART_transmitBreak(uint16_t baseAddress)
{
    //Set UCTXADDR bit
    HWREG16(baseAddress + OFS_UCAxCTLW0) |= UCTXBRK;
    a27c:	ac d3 00 00 	bis	#2,	0(r12)	;r3 As==10

    //If current mode is automatic baud-rate detection
    if(EUSCI_A_UART_AUTOMATIC_BAUDRATE_DETECTION_MODE ==
       (HWREG16(baseAddress + OFS_UCAxCTLW0) &
    a280:	2d 4c       	mov	@r12,	r13	;
    a282:	3d f0 00 06 	and	#1536,	r13	;#0x0600
{
    //Set UCTXADDR bit
    HWREG16(baseAddress + OFS_UCAxCTLW0) |= UCTXBRK;

    //If current mode is automatic baud-rate detection
    if(EUSCI_A_UART_AUTOMATIC_BAUDRATE_DETECTION_MODE ==
    a286:	3d 90 00 06 	cmp	#1536,	r13	;#0x0600
    a28a:	05 20       	jnz	$+12     	;abs 0xa296
       (HWREG16(baseAddress + OFS_UCAxCTLW0) &
        EUSCI_A_UART_AUTOMATIC_BAUDRATE_DETECTION_MODE))
    {
        HWREG16(baseAddress +
                OFS_UCAxTXBUF) = EUSCI_A_UART_AUTOMATICBAUDRATE_SYNC;
    a28c:	bc 40 55 00 	mov	#85,	14(r12)	;#0x0055, 0x000e
    a290:	0e 00 
    a292:	30 40 9a a2 	br	#0xa29a		;
    }
    else
    {
        HWREG16(baseAddress + OFS_UCAxTXBUF) = DEFAULT_SYNC;
    a296:	8c 43 0e 00 	mov	#0,	14(r12)	;r3 As==00, 0x000e
    }

    //If interrupts are not used, poll for flags
    if(!(HWREG16(baseAddress + OFS_UCAxIE) & UCTXIE))
    a29a:	ac b3 1a 00 	bit	#2,	26(r12)	;r3 As==10, 0x001a
    a29e:	05 20       	jnz	$+12     	;abs 0xa2aa
    {
        //Poll for transmit interrupt flag
        while(!(HWREG16(baseAddress + OFS_UCAxIFG) & UCTXIFG))
    a2a0:	3c 50 1c 00 	add	#28,	r12	;#0x001c
    a2a4:	ac b3 00 00 	bit	#2,	0(r12)	;r3 As==10
    a2a8:	fd 27       	jz	$-4      	;abs 0xa2a4
        {
            ;
        }
    }
}
    a2aa:	30 41       	ret			

0000a2ac <EUSCI_A_UART_getReceiveBufferAddress>:

uint32_t EUSCI_A_UART_getReceiveBufferAddress(uint16_t baseAddress)
{
    return (baseAddress + OFS_UCAxRXBUF);
}
    a2ac:	3c 50 0c 00 	add	#12,	r12	;#0x000c
    a2b0:	0d 43       	clr	r13		;
    a2b2:	30 41       	ret			

0000a2b4 <EUSCI_A_UART_getTransmitBufferAddress>:

uint32_t EUSCI_A_UART_getTransmitBufferAddress(uint16_t baseAddress)
{
    return (baseAddress + OFS_UCAxTXBUF);
}
    a2b4:	3c 50 0e 00 	add	#14,	r12	;#0x000e
    a2b8:	0d 43       	clr	r13		;
    a2ba:	30 41       	ret			

0000a2bc <EUSCI_A_UART_selectDeglitchTime>:

void EUSCI_A_UART_selectDeglitchTime(uint16_t baseAddress,
                                     uint16_t deglitchTime)
{
    HWREG16(baseAddress + OFS_UCAxCTLW1) &= ~(UCGLIT1 + UCGLIT0);
    a2bc:	2c 53       	incd	r12		;
    a2be:	bc f0 fc ff 	and	#65532,	0(r12)	;#0xfffc
    a2c2:	00 00 

    HWREG16(baseAddress + OFS_UCAxCTLW1) |= deglitchTime;
    a2c4:	8c dd 00 00 	bis	r13,	0(r12)	;
}
    a2c8:	30 41       	ret			

0000a2ca <EUSCI_B_I2C_initMaster>:

#include <assert.h>

void EUSCI_B_I2C_initMaster(uint16_t baseAddress,
                            EUSCI_B_I2C_initMasterParam *param)
{
    a2ca:	0a 12       	push	r10		;
    a2cc:	0a 4c       	mov	r12,	r10	;
    a2ce:	0e 4d       	mov	r13,	r14	;
    uint16_t preScalarValue;

    //Disable the USCI module and clears the other bits of control register
    HWREG16(baseAddress + OFS_UCBxCTLW0) = UCSWRST;
    a2d0:	9c 43 00 00 	mov	#1,	0(r12)	;r3 As==01

    //Configure Automatic STOP condition generation
    HWREG16(baseAddress + OFS_UCBxCTLW1) &= ~UCASTP_3;
    a2d4:	2c 53       	incd	r12		;
    a2d6:	bc f0 f3 ff 	and	#65523,	0(r12)	;#0xfff3
    a2da:	00 00 
    HWREG16(baseAddress + OFS_UCBxCTLW1) |= param->autoSTOPGeneration;
    a2dc:	5d 4d 0b 00 	mov.b	11(r13),r13	;0x0000b
    a2e0:	8c dd 00 00 	bis	r13,	0(r12)	;

    //Byte Count Threshold
    HWREG16(baseAddress + OFS_UCBxTBCNT) = param->byteCounterThreshold;
    a2e4:	5c 4e 0a 00 	mov.b	10(r14),r12	;0x0000a
    a2e8:	3c f0 ff 00 	and	#255,	r12	;#0x00ff
    a2ec:	8a 4c 0a 00 	mov	r12,	10(r10)	; 0x000a
     * Configure as I2C master mode.
     * UCMST = Master mode
     * UCMODE_3 = I2C mode
     * UCSYNC = Synchronous mode
     */
    HWREG16(baseAddress + OFS_UCBxCTLW0) |= UCMST + UCMODE_3 + UCSYNC;
    a2f0:	ba d0 00 0f 	bis	#3840,	0(r10)	;#0x0f00
    a2f4:	00 00 

    //Configure I2C clock source
    HWREG16(baseAddress +
            OFS_UCBxCTLW0) |= (param->selectClockSource + UCSWRST);
    a2f6:	6c 4e       	mov.b	@r14,	r12	;
    a2f8:	1c 53       	inc	r12		;
    a2fa:	8a dc 00 00 	bis	r12,	0(r10)	;
     * Compute the clock divider that achieves the fastest speed less than or
     * equal to the desired speed.  The numerator is biased to favor a larger
     * clock divider so that the resulting clock is always less than or equal
     * to the desired clock, never greater.
     */
    preScalarValue = (uint16_t)(param->i2cClk / param->dataRate);
    a2fe:	1c 4e 02 00 	mov	2(r14),	r12	;
    a302:	1d 4e 04 00 	mov	4(r14),	r13	;
    a306:	1f 4e 08 00 	mov	8(r14),	r15	;
    a30a:	1e 4e 06 00 	mov	6(r14),	r14	;
    a30e:	b0 12 86 d0 	call	#53382		;#0xd086
    HWREG16(baseAddress + OFS_UCBxBRW) = preScalarValue;
    a312:	8a 4c 06 00 	mov	r12,	6(r10)	;
}
    a316:	3a 41       	pop	r10		;
    a318:	30 41       	ret			

0000a31a <EUSCI_B_I2C_initSlave>:

void EUSCI_B_I2C_initSlave(uint16_t baseAddress,
                           EUSCI_B_I2C_initSlaveParam *param)
{
    //Disable the USCI module
    HWREG16(baseAddress + OFS_UCBxCTLW0) |= UCSWRST;
    a31a:	9c d3 00 00 	bis	#1,	0(r12)	;r3 As==01

    //Clear USCI master mode
    HWREG16(baseAddress + OFS_UCBxCTLW0) &= ~UCMST;
    a31e:	bc f0 ff f7 	and	#63487,	0(r12)	;#0xf7ff
    a322:	00 00 

    //Configure I2C as Slave and Synchronous mode
    HWREG16(baseAddress + OFS_UCBxCTLW0) |= UCMODE_3 + UCSYNC;
    a324:	bc d0 00 07 	bis	#1792,	0(r12)	;#0x0700
    a328:	00 00 

    //Set up the slave address.
    HWREG16(baseAddress + OFS_UCBxI2COA0 + param->slaveAddressOffset)
    a32a:	5e 4d 01 00 	mov.b	1(r13),	r14	;
    a32e:	0c 5e       	add	r14,	r12	;
        = param->slaveAddress + param->slaveOwnAddressEnable;
    a330:	6e 4d       	mov.b	@r13,	r14	;
    a332:	1e 5d 02 00 	add	2(r13),	r14	;
    a336:	8c 4e 14 00 	mov	r14,	20(r12)	; 0x0014
}
    a33a:	30 41       	ret			

0000a33c <EUSCI_B_I2C_enable>:

void EUSCI_B_I2C_enable(uint16_t baseAddress)
{
    //Reset the UCSWRST bit to enable the USCI Module
    HWREG16(baseAddress + OFS_UCBxCTLW0) &= ~(UCSWRST);
    a33c:	9c c3 00 00 	bic	#1,	0(r12)	;r3 As==01
}
    a340:	30 41       	ret			

0000a342 <EUSCI_B_I2C_disable>:

void EUSCI_B_I2C_disable(uint16_t baseAddress)
{
    //Set the UCSWRST bit to disable the USCI Module
    HWREG16(baseAddress + OFS_UCBxCTLW0) |= UCSWRST;
    a342:	9c d3 00 00 	bis	#1,	0(r12)	;r3 As==01
}
    a346:	30 41       	ret			

0000a348 <EUSCI_B_I2C_setSlaveAddress>:

void EUSCI_B_I2C_setSlaveAddress(uint16_t baseAddress,
                                 uint8_t slaveAddress)
{
    //Set the address of the slave with which the master will communicate.
    HWREG16(baseAddress + OFS_UCBxI2CSA) = (slaveAddress);
    a348:	3d f0 ff 00 	and	#255,	r13	;#0x00ff
    a34c:	8c 4d 20 00 	mov	r13,	32(r12)	; 0x0020
}
    a350:	30 41       	ret			

0000a352 <EUSCI_B_I2C_setMode>:

void EUSCI_B_I2C_setMode(uint16_t baseAddress,
                         uint8_t mode)
{
    a352:	3d f0 ff 00 	and	#255,	r13	;#0x00ff
    HWREG16(baseAddress + OFS_UCBxCTLW0) &= ~EUSCI_B_I2C_TRANSMIT_MODE;
    a356:	bc f0 ef ff 	and	#65519,	0(r12)	;#0xffef
    a35a:	00 00 
    HWREG16(baseAddress + OFS_UCBxCTLW0) |= mode;
    a35c:	8c dd 00 00 	bis	r13,	0(r12)	;
}
    a360:	30 41       	ret			

0000a362 <EUSCI_B_I2C_getMode>:

uint8_t EUSCI_B_I2C_getMode(uint16_t baseAddress)
{
    //Read the I2C mode.
    return ((HWREG16(baseAddress + OFS_UCBxCTLW0) & UCTR));
    a362:	2c 4c       	mov	@r12,	r12	;
}
    a364:	7c f0 10 00 	and.b	#16,	r12	;#0x0010
    a368:	30 41       	ret			

0000a36a <EUSCI_B_I2C_slavePutData>:

void EUSCI_B_I2C_slavePutData(uint16_t baseAddress,
                              uint8_t transmitData)
{
    //Send single byte data.
    HWREG16(baseAddress + OFS_UCBxTXBUF) = transmitData;
    a36a:	3d f0 ff 00 	and	#255,	r13	;#0x00ff
    a36e:	8c 4d 0e 00 	mov	r13,	14(r12)	; 0x000e
}
    a372:	30 41       	ret			

0000a374 <EUSCI_B_I2C_slaveGetData>:

uint8_t EUSCI_B_I2C_slaveGetData(uint16_t baseAddress)
{
    //Read a byte.
    return (HWREG16(baseAddress + OFS_UCBxRXBUF));
    a374:	1c 4c 0c 00 	mov	12(r12),r12	;0x0000c
}
    a378:	30 41       	ret			

0000a37a <EUSCI_B_I2C_isBusBusy>:

uint16_t EUSCI_B_I2C_isBusBusy(uint16_t baseAddress)
{
    //Return the bus busy status.
    return (HWREG16(baseAddress + OFS_UCBxSTATW) & UCBBUSY);
}
    a37a:	1c 4c 08 00 	mov	8(r12),	r12	;
    a37e:	3c f0 10 00 	and	#16,	r12	;#0x0010
    a382:	30 41       	ret			

0000a384 <EUSCI_B_I2C_masterIsStopSent>:

uint16_t EUSCI_B_I2C_masterIsStopSent(uint16_t baseAddress)
{
    return (HWREG16(baseAddress + OFS_UCBxCTLW0) & UCTXSTP);
}
    a384:	2c 4c       	mov	@r12,	r12	;
    a386:	2c f2       	and	#4,	r12	;r2 As==10
    a388:	30 41       	ret			

0000a38a <EUSCI_B_I2C_masterIsStartSent>:

uint16_t EUSCI_B_I2C_masterIsStartSent(uint16_t baseAddress)
{
    return (HWREG16(baseAddress + OFS_UCBxCTLW0) & UCTXSTT);
}
    a38a:	2c 4c       	mov	@r12,	r12	;
    a38c:	2c f3       	and	#2,	r12	;r3 As==10
    a38e:	30 41       	ret			

0000a390 <EUSCI_B_I2C_enableInterrupt>:

void EUSCI_B_I2C_enableInterrupt(uint16_t baseAddress,
                                 uint16_t mask)
{
    //Enable the interrupt masked bit
    HWREG16(baseAddress + OFS_UCBxIE) |= mask;
    a390:	8c dd 2a 00 	bis	r13,	42(r12)	; 0x002a
}
    a394:	30 41       	ret			

0000a396 <EUSCI_B_I2C_disableInterrupt>:

void EUSCI_B_I2C_disableInterrupt(uint16_t baseAddress,
                                  uint16_t mask)
{
    //Disable the interrupt masked bit
    HWREG16(baseAddress + OFS_UCBxIE) &= ~(mask);
    a396:	8c cd 2a 00 	bic	r13,	42(r12)	; 0x002a
}
    a39a:	30 41       	ret			

0000a39c <EUSCI_B_I2C_clearInterrupt>:

void EUSCI_B_I2C_clearInterrupt(uint16_t baseAddress,
                                uint16_t mask)
{
    //Clear the I2C interrupt source.
    HWREG16(baseAddress + OFS_UCBxIFG) &= ~(mask);
    a39c:	8c cd 2c 00 	bic	r13,	44(r12)	; 0x002c
}
    a3a0:	30 41       	ret			

0000a3a2 <EUSCI_B_I2C_getInterruptStatus>:
uint16_t EUSCI_B_I2C_getInterruptStatus(uint16_t baseAddress,
                                        uint16_t mask)
{
    //Return the interrupt status of the request masked bit.
    return (HWREG16(baseAddress + OFS_UCBxIFG) & mask);
}
    a3a2:	1c 4c 2c 00 	mov	44(r12),r12	;0x0002c
    a3a6:	0c fd       	and	r13,	r12	;
    a3a8:	30 41       	ret			

0000a3aa <EUSCI_B_I2C_masterSendSingleByte>:

void EUSCI_B_I2C_masterSendSingleByte(uint16_t baseAddress,
                                      uint8_t txData)
{
    a3aa:	0a 12       	push	r10		;
    a3ac:	3d f0 ff 00 	and	#255,	r13	;#0x00ff
    //Store current TXIE status
    uint16_t txieStatus = HWREG16(baseAddress + OFS_UCBxIE) & UCTXIE;
    a3b0:	0b 4c       	mov	r12,	r11	;
    a3b2:	3b 50 2a 00 	add	#42,	r11	;#0x002a
    a3b6:	2a 4b       	mov	@r11,	r10	;
    a3b8:	2a f3       	and	#2,	r10	;r3 As==10

    //Disable transmit interrupt enable
    HWREG16(baseAddress + OFS_UCBxIE) &= ~(UCTXIE);
    a3ba:	ab c3 00 00 	bic	#2,	0(r11)	;r3 As==10

    //Send start condition.
    HWREG16(baseAddress + OFS_UCBxCTLW0) |= UCTR + UCTXSTT;
    a3be:	bc d0 12 00 	bis	#18,	0(r12)	;#0x0012
    a3c2:	00 00 

    //Poll for transmit interrupt flag.
    while(!(HWREG16(baseAddress + OFS_UCBxIFG) & UCTXIFG))
    a3c4:	0f 4c       	mov	r12,	r15	;
    a3c6:	3f 50 2c 00 	add	#44,	r15	;#0x002c
    a3ca:	0e 4f       	mov	r15,	r14	;
    a3cc:	af b3 00 00 	bit	#2,	0(r15)	;r3 As==10
    a3d0:	fc 27       	jz	$-6      	;abs 0xa3ca
    {
        ;
    }

    //Send single byte data.
    HWREG16(baseAddress + OFS_UCBxTXBUF) = txData;
    a3d2:	8c 4d 0e 00 	mov	r13,	14(r12)	; 0x000e

    //Poll for transmit interrupt flag.
    while(!(HWREG16(baseAddress + OFS_UCBxIFG) & UCTXIFG))
    a3d6:	ae b3 00 00 	bit	#2,	0(r14)	;r3 As==10
    a3da:	fd 27       	jz	$-4      	;abs 0xa3d6
    {
        ;
    }

    //Send stop condition.
    HWREG16(baseAddress + OFS_UCBxCTLW0) |= UCTXSTP;
    a3dc:	ac d2 00 00 	bis	#4,	0(r12)	;r2 As==10

    //Clear transmit interrupt flag before enabling interrupt again
    HWREG16(baseAddress + OFS_UCBxIFG) &= ~(UCTXIFG);
    a3e0:	ae c3 00 00 	bic	#2,	0(r14)	;r3 As==10

    //Reinstate transmit interrupt enable
    HWREG16(baseAddress + OFS_UCBxIE) |= txieStatus;
    a3e4:	8b da 00 00 	bis	r10,	0(r11)	;
}
    a3e8:	3a 41       	pop	r10		;
    a3ea:	30 41       	ret			

0000a3ec <EUSCI_B_I2C_masterReceiveSingleByte>:

uint8_t EUSCI_B_I2C_masterReceiveSingleByte(uint16_t baseAddress)
{
    //Set USCI in Receive mode
    HWREG16(baseAddress + OFS_UCBxCTLW0) &= ~UCTR;
    a3ec:	bc f0 ef ff 	and	#65519,	0(r12)	;#0xffef
    a3f0:	00 00 

    //Send start
    HWREG16(baseAddress + OFS_UCBxCTLW0) |= (UCTXSTT + UCTXSTP);
    a3f2:	bc d0 06 00 	bis	#6,	0(r12)	;
    a3f6:	00 00 

    //Poll for receive interrupt flag.
    while(!(HWREG16(baseAddress + OFS_UCBxIFG) & UCRXIFG))
    a3f8:	0d 4c       	mov	r12,	r13	;
    a3fa:	3d 50 2c 00 	add	#44,	r13	;#0x002c
    a3fe:	9d b3 00 00 	bit	#1,	0(r13)	;r3 As==01
    a402:	fd 27       	jz	$-4      	;abs 0xa3fe
    {
        ;
    }

    //Send single byte data.
    return (HWREG16(baseAddress + OFS_UCBxRXBUF));
    a404:	1c 4c 0c 00 	mov	12(r12),r12	;0x0000c
}
    a408:	30 41       	ret			

0000a40a <EUSCI_B_I2C_masterSendSingleByteWithTimeout>:

bool EUSCI_B_I2C_masterSendSingleByteWithTimeout(uint16_t baseAddress,
                                                 uint8_t txData,
                                                 uint32_t timeout)
{
    a40a:	0a 12       	push	r10		;
    a40c:	09 12       	push	r9		;
    a40e:	08 12       	push	r8		;
    a410:	07 12       	push	r7		;
    a412:	06 12       	push	r6		;
    a414:	3d f0 ff 00 	and	#255,	r13	;#0x00ff
    a418:	08 4e       	mov	r14,	r8	;
    a41a:	09 4f       	mov	r15,	r9	;
    // Creating variable for second timeout scenario
    uint32_t timeout2 = timeout;

    //Store current TXIE status
    uint16_t txieStatus = HWREG16(baseAddress + OFS_UCBxIE) & UCTXIE;
    a41c:	07 4c       	mov	r12,	r7	;
    a41e:	37 50 2a 00 	add	#42,	r7	;#0x002a
    a422:	26 47       	mov	@r7,	r6	;

    //Disable transmit interrupt enable
    HWREG16(baseAddress + OFS_UCBxIE) &= ~(UCTXIE);
    a424:	a7 c3 00 00 	bic	#2,	0(r7)	;r3 As==10

    //Send start condition.
    HWREG16(baseAddress + OFS_UCBxCTLW0) |= UCTR + UCTXSTT;
    a428:	bc d0 12 00 	bis	#18,	0(r12)	;#0x0012
    a42c:	00 00 

    //Poll for transmit interrupt flag.
    while((!(HWREG16(baseAddress + OFS_UCBxIFG) & UCTXIFG)) && --timeout)
    a42e:	0a 4e       	mov	r14,	r10	;
    a430:	0b 4f       	mov	r15,	r11	;
    a432:	0e 4c       	mov	r12,	r14	;
    a434:	3e 50 2c 00 	add	#44,	r14	;#0x002c
    a438:	0f 4e       	mov	r14,	r15	;
    a43a:	ae b3 00 00 	bit	#2,	0(r14)	;r3 As==10
    a43e:	09 20       	jnz	$+20     	;abs 0xa452
    a440:	3a 53       	add	#-1,	r10	;r3 As==11
    a442:	3b 63       	addc	#-1,	r11	;r3 As==11
    a444:	0f 4a       	mov	r10,	r15	;
    a446:	0f db       	bis	r11,	r15	;
    a448:	0f 93       	cmp	#0,	r15	;r3 As==00
    a44a:	f6 23       	jnz	$-18     	;abs 0xa438
    }

    //Check if transfer timed out
    if(timeout == 0)
    {
        return (STATUS_FAIL);
    a44c:	0c 43       	clr	r12		;
    a44e:	30 40 9a a4 	br	#0xa49a		;
    {
        ;
    }

    //Check if transfer timed out
    if(timeout == 0)
    a452:	0e 4a       	mov	r10,	r14	;
    a454:	0e db       	bis	r11,	r14	;
    a456:	0e 93       	cmp	#0,	r14	;r3 As==00
    a458:	1c 24       	jz	$+58     	;abs 0xa492
    {
        return (STATUS_FAIL);
    }

    //Send single byte data.
    HWREG16(baseAddress + OFS_UCBxTXBUF) = txData;
    a45a:	8c 4d 0e 00 	mov	r13,	14(r12)	; 0x000e

    //Poll for transmit interrupt flag.
    while((!(HWREG16(baseAddress + OFS_UCBxIFG) & UCTXIFG)) && --timeout2)
    a45e:	af b3 00 00 	bit	#2,	0(r15)	;r3 As==10
    a462:	09 20       	jnz	$+20     	;abs 0xa476
    a464:	38 53       	add	#-1,	r8	;r3 As==11
    a466:	39 63       	addc	#-1,	r9	;r3 As==11
    a468:	0d 48       	mov	r8,	r13	;
    a46a:	0d d9       	bis	r9,	r13	;
    a46c:	0d 93       	cmp	#0,	r13	;r3 As==00
    a46e:	f7 23       	jnz	$-16     	;abs 0xa45e
    }

    //Check if transfer timed out
    if(timeout2 == 0)
    {
        return (STATUS_FAIL);
    a470:	0c 43       	clr	r12		;
    a472:	30 40 9a a4 	br	#0xa49a		;
    {
        ;
    }

    //Check if transfer timed out
    if(timeout2 == 0)
    a476:	0d 48       	mov	r8,	r13	;
    a478:	0d d9       	bis	r9,	r13	;
    a47a:	0d 93       	cmp	#0,	r13	;r3 As==00
    a47c:	0d 24       	jz	$+28     	;abs 0xa498
    {
        return (STATUS_FAIL);
    }

    //Send stop condition.
    HWREG16(baseAddress + OFS_UCBxCTLW0) |= UCTXSTP;
    a47e:	ac d2 00 00 	bis	#4,	0(r12)	;r2 As==10

    //Clear transmit interrupt flag before enabling interrupt again
    HWREG16(baseAddress + OFS_UCBxIFG) &= ~(UCTXIFG);
    a482:	af c3 00 00 	bic	#2,	0(r15)	;r3 As==10
{
    // Creating variable for second timeout scenario
    uint32_t timeout2 = timeout;

    //Store current TXIE status
    uint16_t txieStatus = HWREG16(baseAddress + OFS_UCBxIE) & UCTXIE;
    a486:	26 f3       	and	#2,	r6	;r3 As==10

    //Clear transmit interrupt flag before enabling interrupt again
    HWREG16(baseAddress + OFS_UCBxIFG) &= ~(UCTXIFG);

    //Reinstate transmit interrupt enable
    HWREG16(baseAddress + OFS_UCBxIE) |= txieStatus;
    a488:	87 d6 00 00 	bis	r6,	0(r7)	;

    return (STATUS_SUCCESS);
    a48c:	1c 43       	mov	#1,	r12	;r3 As==01
    a48e:	30 40 9a a4 	br	#0xa49a		;
    }

    //Check if transfer timed out
    if(timeout == 0)
    {
        return (STATUS_FAIL);
    a492:	0c 43       	clr	r12		;
    a494:	30 40 9a a4 	br	#0xa49a		;
    }

    //Check if transfer timed out
    if(timeout2 == 0)
    {
        return (STATUS_FAIL);
    a498:	0c 43       	clr	r12		;

    //Reinstate transmit interrupt enable
    HWREG16(baseAddress + OFS_UCBxIE) |= txieStatus;

    return (STATUS_SUCCESS);
}
    a49a:	30 40 6c d1 	br	#0xd16c		;

0000a49e <EUSCI_B_I2C_masterSendMultiByteStart>:

void EUSCI_B_I2C_masterSendMultiByteStart(uint16_t baseAddress,
                                          uint8_t txData)
{
    a49e:	3d f0 ff 00 	and	#255,	r13	;#0x00ff
    //Store current transmit interrupt enable
    uint16_t txieStatus = HWREG16(baseAddress + OFS_UCBxIE) & UCTXIE;
    a4a2:	0f 4c       	mov	r12,	r15	;
    a4a4:	3f 50 2a 00 	add	#42,	r15	;#0x002a
    a4a8:	2b 4f       	mov	@r15,	r11	;
    a4aa:	2b f3       	and	#2,	r11	;r3 As==10

    //Disable transmit interrupt enable
    HWREG16(baseAddress + OFS_UCBxIE) &= ~(UCTXIE);
    a4ac:	af c3 00 00 	bic	#2,	0(r15)	;r3 As==10

    //Send start condition.
    HWREG16(baseAddress + OFS_UCBxCTLW0) |= UCTR + UCTXSTT;
    a4b0:	bc d0 12 00 	bis	#18,	0(r12)	;#0x0012
    a4b4:	00 00 

    //Poll for transmit interrupt flag.
    while(!(HWREG16(baseAddress + OFS_UCBxIFG) & UCTXIFG))
    a4b6:	0e 4c       	mov	r12,	r14	;
    a4b8:	3e 50 2c 00 	add	#44,	r14	;#0x002c
    a4bc:	ae b3 00 00 	bit	#2,	0(r14)	;r3 As==10
    a4c0:	fd 27       	jz	$-4      	;abs 0xa4bc
    {
        ;
    }

    //Send single byte data.
    HWREG16(baseAddress + OFS_UCBxTXBUF) = txData;
    a4c2:	8c 4d 0e 00 	mov	r13,	14(r12)	; 0x000e

    //Reinstate transmit interrupt enable
    HWREG16(baseAddress + OFS_UCBxIE) |= txieStatus;
    a4c6:	8f db 00 00 	bis	r11,	0(r15)	;
}
    a4ca:	30 41       	ret			

0000a4cc <EUSCI_B_I2C_masterSendMultiByteStartWithTimeout>:

bool EUSCI_B_I2C_masterSendMultiByteStartWithTimeout(uint16_t baseAddress,
                                                     uint8_t txData,
                                                     uint32_t timeout)
{
    a4cc:	0a 12       	push	r10		;
    a4ce:	09 12       	push	r9		;
    a4d0:	08 12       	push	r8		;
    a4d2:	3d f0 ff 00 	and	#255,	r13	;#0x00ff
    //Store current transmit interrupt enable
    uint16_t txieStatus = HWREG16(baseAddress + OFS_UCBxIE) & UCTXIE;
    a4d6:	09 4c       	mov	r12,	r9	;
    a4d8:	39 50 2a 00 	add	#42,	r9	;#0x002a
    a4dc:	28 49       	mov	@r9,	r8	;

    //Disable transmit interrupt enable
    HWREG16(baseAddress + OFS_UCBxIE) &= ~(UCTXIE);
    a4de:	a9 c3 00 00 	bic	#2,	0(r9)	;r3 As==10

    //Send start condition.
    HWREG16(baseAddress + OFS_UCBxCTLW0) |= UCTR + UCTXSTT;
    a4e2:	bc d0 12 00 	bis	#18,	0(r12)	;#0x0012
    a4e6:	00 00 

    //Poll for transmit interrupt flag.
    while((!(HWREG16(baseAddress + OFS_UCBxIFG) & UCTXIFG)) && --timeout)
    a4e8:	0a 4c       	mov	r12,	r10	;
    a4ea:	3a 50 2c 00 	add	#44,	r10	;#0x002c
    a4ee:	aa b3 00 00 	bit	#2,	0(r10)	;r3 As==10
    a4f2:	09 20       	jnz	$+20     	;abs 0xa506
    a4f4:	3e 53       	add	#-1,	r14	;r3 As==11
    a4f6:	3f 63       	addc	#-1,	r15	;r3 As==11
    a4f8:	0b 4e       	mov	r14,	r11	;
    a4fa:	0b df       	bis	r15,	r11	;
    a4fc:	0b 93       	cmp	#0,	r11	;r3 As==00
    a4fe:	f7 23       	jnz	$-16     	;abs 0xa4ee
    }

    //Check if transfer timed out
    if(timeout == 0)
    {
        return (STATUS_FAIL);
    a500:	0c 43       	clr	r12		;
    a502:	30 40 1e a5 	br	#0xa51e		;
    {
        ;
    }

    //Check if transfer timed out
    if(timeout == 0)
    a506:	0e df       	bis	r15,	r14	;
    a508:	0e 93       	cmp	#0,	r14	;r3 As==00
    a50a:	08 24       	jz	$+18     	;abs 0xa51c
    {
        return (STATUS_FAIL);
    }

    //Send single byte data.
    HWREG16(baseAddress + OFS_UCBxTXBUF) = txData;
    a50c:	8c 4d 0e 00 	mov	r13,	14(r12)	; 0x000e
bool EUSCI_B_I2C_masterSendMultiByteStartWithTimeout(uint16_t baseAddress,
                                                     uint8_t txData,
                                                     uint32_t timeout)
{
    //Store current transmit interrupt enable
    uint16_t txieStatus = HWREG16(baseAddress + OFS_UCBxIE) & UCTXIE;
    a510:	28 f3       	and	#2,	r8	;r3 As==10

    //Send single byte data.
    HWREG16(baseAddress + OFS_UCBxTXBUF) = txData;

    //Reinstate transmit interrupt enable
    HWREG16(baseAddress + OFS_UCBxIE) |= txieStatus;
    a512:	89 d8 00 00 	bis	r8,	0(r9)	;

    return(STATUS_SUCCESS);
    a516:	1c 43       	mov	#1,	r12	;r3 As==01
    a518:	30 40 1e a5 	br	#0xa51e		;
    }

    //Check if transfer timed out
    if(timeout == 0)
    {
        return (STATUS_FAIL);
    a51c:	0c 43       	clr	r12		;

    //Reinstate transmit interrupt enable
    HWREG16(baseAddress + OFS_UCBxIE) |= txieStatus;

    return(STATUS_SUCCESS);
}
    a51e:	30 40 70 d1 	br	#0xd170		;

0000a522 <EUSCI_B_I2C_masterSendMultiByteNext>:

void EUSCI_B_I2C_masterSendMultiByteNext(uint16_t baseAddress,
                                         uint8_t txData)
{
    a522:	3d f0 ff 00 	and	#255,	r13	;#0x00ff
    //If interrupts are not used, poll for flags
    if(!(HWREG16(baseAddress + OFS_UCBxIE) & UCTXIE))
    a526:	ac b3 2a 00 	bit	#2,	42(r12)	;r3 As==10, 0x002a
    a52a:	06 20       	jnz	$+14     	;abs 0xa538
    {
        //Poll for transmit interrupt flag.
        while(!(HWREG16(baseAddress + OFS_UCBxIFG) & UCTXIFG))
    a52c:	0e 4c       	mov	r12,	r14	;
    a52e:	3e 50 2c 00 	add	#44,	r14	;#0x002c
    a532:	ae b3 00 00 	bit	#2,	0(r14)	;r3 As==10
    a536:	fd 27       	jz	$-4      	;abs 0xa532
            ;
        }
    }

    //Send single byte data.
    HWREG16(baseAddress + OFS_UCBxTXBUF) = txData;
    a538:	8c 4d 0e 00 	mov	r13,	14(r12)	; 0x000e
}
    a53c:	30 41       	ret			

0000a53e <EUSCI_B_I2C_masterSendMultiByteNextWithTimeout>:

bool EUSCI_B_I2C_masterSendMultiByteNextWithTimeout(uint16_t baseAddress,
                                                    uint8_t txData,
                                                    uint32_t timeout)
{
    a53e:	0a 12       	push	r10		;
    a540:	3d f0 ff 00 	and	#255,	r13	;#0x00ff
    //If interrupts are not used, poll for flags
    if(!(HWREG16(baseAddress + OFS_UCBxIE) & UCTXIE))
    a544:	ac b3 2a 00 	bit	#2,	42(r12)	;r3 As==10, 0x002a
    a548:	12 20       	jnz	$+38     	;abs 0xa56e
    {
        //Poll for transmit interrupt flag.
        while((!(HWREG16(baseAddress + OFS_UCBxIFG) & UCTXIFG)) && --timeout)
    a54a:	0a 4c       	mov	r12,	r10	;
    a54c:	3a 50 2c 00 	add	#44,	r10	;#0x002c
    a550:	aa b3 00 00 	bit	#2,	0(r10)	;r3 As==10
    a554:	09 20       	jnz	$+20     	;abs 0xa568
    a556:	3e 53       	add	#-1,	r14	;r3 As==11
    a558:	3f 63       	addc	#-1,	r15	;r3 As==11
    a55a:	0b 4e       	mov	r14,	r11	;
    a55c:	0b df       	bis	r15,	r11	;
    a55e:	0b 93       	cmp	#0,	r11	;r3 As==00
    a560:	f7 23       	jnz	$-16     	;abs 0xa550
        }

        //Check if transfer timed out
        if(timeout == 0)
        {
            return (STATUS_FAIL);
    a562:	0c 43       	clr	r12		;
    a564:	30 40 7a a5 	br	#0xa57a		;
        {
            ;
        }

        //Check if transfer timed out
        if(timeout == 0)
    a568:	0e df       	bis	r15,	r14	;
    a56a:	0e 93       	cmp	#0,	r14	;r3 As==00
    a56c:	05 24       	jz	$+12     	;abs 0xa578
            return (STATUS_FAIL);
        }
    }

    //Send single byte data.
    HWREG16(baseAddress + OFS_UCBxTXBUF) = txData;
    a56e:	8c 4d 0e 00 	mov	r13,	14(r12)	; 0x000e

    return(STATUS_SUCCESS);
    a572:	1c 43       	mov	#1,	r12	;r3 As==01
    a574:	30 40 7a a5 	br	#0xa57a		;
        }

        //Check if transfer timed out
        if(timeout == 0)
        {
            return (STATUS_FAIL);
    a578:	0c 43       	clr	r12		;

    //Send single byte data.
    HWREG16(baseAddress + OFS_UCBxTXBUF) = txData;

    return(STATUS_SUCCESS);
}
    a57a:	3a 41       	pop	r10		;
    a57c:	30 41       	ret			

0000a57e <EUSCI_B_I2C_masterSendMultiByteFinish>:

void EUSCI_B_I2C_masterSendMultiByteFinish(uint16_t baseAddress,
                                           uint8_t txData)
{
    a57e:	3d f0 ff 00 	and	#255,	r13	;#0x00ff
    //If interrupts are not used, poll for flags
    if(!(HWREG16(baseAddress + OFS_UCBxIE) & UCTXIE))
    a582:	ac b3 2a 00 	bit	#2,	42(r12)	;r3 As==10, 0x002a
    a586:	06 20       	jnz	$+14     	;abs 0xa594
    {
        //Poll for transmit interrupt flag.
        while(!(HWREG16(baseAddress + OFS_UCBxIFG) & UCTXIFG))
    a588:	0e 4c       	mov	r12,	r14	;
    a58a:	3e 50 2c 00 	add	#44,	r14	;#0x002c
    a58e:	ae b3 00 00 	bit	#2,	0(r14)	;r3 As==10
    a592:	fd 27       	jz	$-4      	;abs 0xa58e
            ;
        }
    }

    //Send single byte data.
    HWREG16(baseAddress + OFS_UCBxTXBUF) = txData;
    a594:	8c 4d 0e 00 	mov	r13,	14(r12)	; 0x000e

    //Poll for transmit interrupt flag.
    while(!(HWREG16(baseAddress + OFS_UCBxIFG) & UCTXIFG))
    a598:	0d 4c       	mov	r12,	r13	;
    a59a:	3d 50 2c 00 	add	#44,	r13	;#0x002c
    a59e:	ad b3 00 00 	bit	#2,	0(r13)	;r3 As==10
    a5a2:	fd 27       	jz	$-4      	;abs 0xa59e
    {
        ;
    }

    //Send stop condition.
    HWREG16(baseAddress + OFS_UCBxCTLW0) |= UCTXSTP;
    a5a4:	ac d2 00 00 	bis	#4,	0(r12)	;r2 As==10
}
    a5a8:	30 41       	ret			

0000a5aa <EUSCI_B_I2C_masterSendMultiByteFinishWithTimeout>:

bool EUSCI_B_I2C_masterSendMultiByteFinishWithTimeout(uint16_t baseAddress,
                                                      uint8_t txData,
                                                      uint32_t timeout)
{
    a5aa:	0a 12       	push	r10		;
    a5ac:	09 12       	push	r9		;
    a5ae:	08 12       	push	r8		;
    a5b0:	3d f0 ff 00 	and	#255,	r13	;#0x00ff
    uint32_t timeout2 = timeout;

    //If interrupts are not used, poll for flags
    if(!(HWREG16(baseAddress + OFS_UCBxIE) & UCTXIE))
    a5b4:	ac b3 2a 00 	bit	#2,	42(r12)	;r3 As==10, 0x002a
    a5b8:	14 20       	jnz	$+42     	;abs 0xa5e2
    a5ba:	0a 4e       	mov	r14,	r10	;
    a5bc:	0b 4f       	mov	r15,	r11	;
    {
        //Poll for transmit interrupt flag.
        while((!(HWREG16(baseAddress + OFS_UCBxIFG) & UCTXIFG)) && --timeout)
    a5be:	08 4c       	mov	r12,	r8	;
    a5c0:	38 50 2c 00 	add	#44,	r8	;#0x002c
    a5c4:	a8 b3 00 00 	bit	#2,	0(r8)	;r3 As==10
    a5c8:	09 20       	jnz	$+20     	;abs 0xa5dc
    a5ca:	3a 53       	add	#-1,	r10	;r3 As==11
    a5cc:	3b 63       	addc	#-1,	r11	;r3 As==11
    a5ce:	09 4a       	mov	r10,	r9	;
    a5d0:	09 db       	bis	r11,	r9	;
    a5d2:	09 93       	cmp	#0,	r9	;r3 As==00
    a5d4:	f7 23       	jnz	$-16     	;abs 0xa5c4
        }

        //Check if transfer timed out
        if(timeout == 0)
        {
            return (STATUS_FAIL);
    a5d6:	0c 43       	clr	r12		;
    a5d8:	30 40 1e a6 	br	#0xa61e		;
        {
            ;
        }

        //Check if transfer timed out
        if(timeout == 0)
    a5dc:	0a db       	bis	r11,	r10	;
    a5de:	0a 93       	cmp	#0,	r10	;r3 As==00
    a5e0:	1a 24       	jz	$+54     	;abs 0xa616
            return (STATUS_FAIL);
        }
    }

    //Send single byte data.
    HWREG16(baseAddress + OFS_UCBxTXBUF) = txData;
    a5e2:	8c 4d 0e 00 	mov	r13,	14(r12)	; 0x000e

    //Poll for transmit interrupt flag.
    while((!(HWREG16(baseAddress + OFS_UCBxIFG) & UCTXIFG)) && --timeout2)
    a5e6:	0a 4c       	mov	r12,	r10	;
    a5e8:	3a 50 2c 00 	add	#44,	r10	;#0x002c
    a5ec:	aa b3 00 00 	bit	#2,	0(r10)	;r3 As==10
    a5f0:	09 20       	jnz	$+20     	;abs 0xa604
    a5f2:	3e 53       	add	#-1,	r14	;r3 As==11
    a5f4:	3f 63       	addc	#-1,	r15	;r3 As==11
    a5f6:	0d 4e       	mov	r14,	r13	;
    a5f8:	0d df       	bis	r15,	r13	;
    a5fa:	0d 93       	cmp	#0,	r13	;r3 As==00
    a5fc:	f7 23       	jnz	$-16     	;abs 0xa5ec
    }

    //Check if transfer timed out
    if(timeout2 == 0)
    {
        return (STATUS_FAIL);
    a5fe:	0c 43       	clr	r12		;
    a600:	30 40 1e a6 	br	#0xa61e		;
    {
        ;
    }

    //Check if transfer timed out
    if(timeout2 == 0)
    a604:	0d 4e       	mov	r14,	r13	;
    a606:	0d df       	bis	r15,	r13	;
    a608:	0d 93       	cmp	#0,	r13	;r3 As==00
    a60a:	08 24       	jz	$+18     	;abs 0xa61c
    {
        return (STATUS_FAIL);
    }

    //Send stop condition.
    HWREG16(baseAddress + OFS_UCBxCTLW0) |= UCTXSTP;
    a60c:	ac d2 00 00 	bis	#4,	0(r12)	;r2 As==10

    return(STATUS_SUCCESS);
    a610:	1c 43       	mov	#1,	r12	;r3 As==01
    a612:	30 40 1e a6 	br	#0xa61e		;
        }

        //Check if transfer timed out
        if(timeout == 0)
        {
            return (STATUS_FAIL);
    a616:	0c 43       	clr	r12		;
    a618:	30 40 1e a6 	br	#0xa61e		;
    }

    //Check if transfer timed out
    if(timeout2 == 0)
    {
        return (STATUS_FAIL);
    a61c:	0c 43       	clr	r12		;

    //Send stop condition.
    HWREG16(baseAddress + OFS_UCBxCTLW0) |= UCTXSTP;

    return(STATUS_SUCCESS);
}
    a61e:	30 40 70 d1 	br	#0xd170		;

0000a622 <EUSCI_B_I2C_masterSendStart>:

void EUSCI_B_I2C_masterSendStart(uint16_t baseAddress)
{
    HWREG16(baseAddress + OFS_UCBxCTLW0) |= UCTXSTT;
    a622:	ac d3 00 00 	bis	#2,	0(r12)	;r3 As==10
}
    a626:	30 41       	ret			

0000a628 <EUSCI_B_I2C_masterSendMultiByteStop>:

void EUSCI_B_I2C_masterSendMultiByteStop(uint16_t baseAddress)
{
    //If interrupts are not used, poll for flags
    if(!(HWREG16(baseAddress + OFS_UCBxIE) & UCTXIE))
    a628:	ac b3 2a 00 	bit	#2,	42(r12)	;r3 As==10, 0x002a
    a62c:	06 20       	jnz	$+14     	;abs 0xa63a
    {
        //Poll for transmit interrupt flag.
        while(!(HWREG16(baseAddress + OFS_UCBxIFG) & UCTXIFG))
    a62e:	0d 4c       	mov	r12,	r13	;
    a630:	3d 50 2c 00 	add	#44,	r13	;#0x002c
    a634:	ad b3 00 00 	bit	#2,	0(r13)	;r3 As==10
    a638:	fd 27       	jz	$-4      	;abs 0xa634
            ;
        }
    }

    //Send stop condition.
    HWREG16(baseAddress + OFS_UCBxCTLW0) |= UCTXSTP;
    a63a:	ac d2 00 00 	bis	#4,	0(r12)	;r2 As==10
}
    a63e:	30 41       	ret			

0000a640 <EUSCI_B_I2C_masterSendMultiByteStopWithTimeout>:

bool EUSCI_B_I2C_masterSendMultiByteStopWithTimeout(uint16_t baseAddress,
                                                    uint32_t timeout)
{
    a640:	0f 4e       	mov	r14,	r15	;
    a642:	0e 4d       	mov	r13,	r14	;
    //If interrupts are not used, poll for flags
    if(!(HWREG16(baseAddress + OFS_UCBxIE) & UCTXIE))
    a644:	ac b3 2a 00 	bit	#2,	42(r12)	;r3 As==10, 0x002a
    a648:	13 20       	jnz	$+40     	;abs 0xa670
    {
        //Poll for transmit interrupt flag.
        while((!(HWREG16(baseAddress + OFS_UCBxIFG) & UCTXIFG)) && --timeout)
    a64a:	0b 4c       	mov	r12,	r11	;
    a64c:	3b 50 2c 00 	add	#44,	r11	;#0x002c
    a650:	ab b3 00 00 	bit	#2,	0(r11)	;r3 As==10
    a654:	09 20       	jnz	$+20     	;abs 0xa668
    a656:	3e 53       	add	#-1,	r14	;r3 As==11
    a658:	3f 63       	addc	#-1,	r15	;r3 As==11
    a65a:	0d 4e       	mov	r14,	r13	;
    a65c:	0d df       	bis	r15,	r13	;
    a65e:	0d 93       	cmp	#0,	r13	;r3 As==00
    a660:	f7 23       	jnz	$-16     	;abs 0xa650
        }

        //Check if transfer timed out
        if(timeout == 0)
        {
            return (STATUS_FAIL);
    a662:	0c 43       	clr	r12		;
    a664:	30 40 7c a6 	br	#0xa67c		;
        {
            ;
        }

        //Check if transfer timed out
        if(timeout == 0)
    a668:	0d 4e       	mov	r14,	r13	;
    a66a:	0d df       	bis	r15,	r13	;
    a66c:	0d 93       	cmp	#0,	r13	;r3 As==00
    a66e:	05 24       	jz	$+12     	;abs 0xa67a
            return (STATUS_FAIL);
        }
    }

    //Send stop condition.
    HWREG16(baseAddress + OFS_UCBxCTLW0) |= UCTXSTP;
    a670:	ac d2 00 00 	bis	#4,	0(r12)	;r2 As==10

    return (STATUS_SUCCESS);
    a674:	1c 43       	mov	#1,	r12	;r3 As==01
    a676:	30 40 7c a6 	br	#0xa67c		;
        }

        //Check if transfer timed out
        if(timeout == 0)
        {
            return (STATUS_FAIL);
    a67a:	0c 43       	clr	r12		;

    //Send stop condition.
    HWREG16(baseAddress + OFS_UCBxCTLW0) |= UCTXSTP;

    return (STATUS_SUCCESS);
}
    a67c:	30 41       	ret			

0000a67e <EUSCI_B_I2C_masterReceiveStart>:

void EUSCI_B_I2C_masterReceiveStart(uint16_t baseAddress)
{
    //Set USCI in Receive mode
    HWREG16(baseAddress + OFS_UCBxCTLW0) &= ~UCTR;
    a67e:	bc f0 ef ff 	and	#65519,	0(r12)	;#0xffef
    a682:	00 00 
    //Send start
    HWREG16(baseAddress + OFS_UCBxCTLW0) |= UCTXSTT;
    a684:	ac d3 00 00 	bis	#2,	0(r12)	;r3 As==10
}
    a688:	30 41       	ret			

0000a68a <EUSCI_B_I2C_masterReceiveMultiByteNext>:

uint8_t EUSCI_B_I2C_masterReceiveMultiByteNext(uint16_t baseAddress)
{
    return (HWREG16(baseAddress + OFS_UCBxRXBUF));
    a68a:	1c 4c 0c 00 	mov	12(r12),r12	;0x0000c
}
    a68e:	30 41       	ret			

0000a690 <EUSCI_B_I2C_masterReceiveMultiByteFinish>:

uint8_t EUSCI_B_I2C_masterReceiveMultiByteFinish(uint16_t baseAddress)
{
    //Send stop condition.
    HWREG16(baseAddress + OFS_UCBxCTLW0) |= UCTXSTP;
    a690:	0e 4c       	mov	r12,	r14	;
    a692:	ac d2 00 00 	bis	#4,	0(r12)	;r2 As==10

    //Wait for Stop to finish
    while(HWREG16(baseAddress + OFS_UCBxCTLW0) & UCTXSTP)
    {
        // Wait for RX buffer
        while(!(HWREG16(baseAddress + OFS_UCBxIFG) & UCRXIFG))
    a696:	0d 4c       	mov	r12,	r13	;
    a698:	3d 50 2c 00 	add	#44,	r13	;#0x002c
{
    //Send stop condition.
    HWREG16(baseAddress + OFS_UCBxCTLW0) |= UCTXSTP;

    //Wait for Stop to finish
    while(HWREG16(baseAddress + OFS_UCBxCTLW0) & UCTXSTP)
    a69c:	30 40 a6 a6 	br	#0xa6a6		;
    {
        // Wait for RX buffer
        while(!(HWREG16(baseAddress + OFS_UCBxIFG) & UCRXIFG))
    a6a0:	9d b3 00 00 	bit	#1,	0(r13)	;r3 As==01
    a6a4:	fd 27       	jz	$-4      	;abs 0xa6a0
{
    //Send stop condition.
    HWREG16(baseAddress + OFS_UCBxCTLW0) |= UCTXSTP;

    //Wait for Stop to finish
    while(HWREG16(baseAddress + OFS_UCBxCTLW0) & UCTXSTP)
    a6a6:	ae b2 00 00 	bit	#4,	0(r14)	;r2 As==10
    a6aa:	fa 23       	jnz	$-10     	;abs 0xa6a0
        }
    }

    //Capture data from receive buffer after setting stop bit due to
    //MSP430 I2C critical timing.
    return (HWREG16(baseAddress + OFS_UCBxRXBUF));
    a6ac:	1c 4c 0c 00 	mov	12(r12),r12	;0x0000c
}
    a6b0:	30 41       	ret			

0000a6b2 <EUSCI_B_I2C_masterReceiveMultiByteFinishWithTimeout>:

bool EUSCI_B_I2C_masterReceiveMultiByteFinishWithTimeout(uint16_t baseAddress,
                                                         uint8_t *txData,
                                                         uint32_t timeout)
{
    a6b2:	0a 12       	push	r10		;
    a6b4:	09 12       	push	r9		;
    a6b6:	08 12       	push	r8		;
    a6b8:	08 4e       	mov	r14,	r8	;
    a6ba:	09 4f       	mov	r15,	r9	;
    uint32_t timeout2 = timeout;

    //Send stop condition.
    HWREG16(baseAddress + OFS_UCBxCTLW0) |= UCTXSTP;
    a6bc:	0e 4c       	mov	r12,	r14	;
    a6be:	ac d2 00 00 	bis	#4,	0(r12)	;r2 As==10

    //Wait for Stop to finish
    while((HWREG16(baseAddress + OFS_UCBxCTLW0) & UCTXSTP) && --timeout)
    a6c2:	0a 48       	mov	r8,	r10	;
    a6c4:	0b 4f       	mov	r15,	r11	;
    a6c6:	ae b2 00 00 	bit	#4,	0(r14)	;r2 As==10
    a6ca:	09 24       	jz	$+20     	;abs 0xa6de
    a6cc:	3a 53       	add	#-1,	r10	;r3 As==11
    a6ce:	3b 63       	addc	#-1,	r11	;r3 As==11
    a6d0:	0f 4a       	mov	r10,	r15	;
    a6d2:	0f db       	bis	r11,	r15	;
    a6d4:	0f 93       	cmp	#0,	r15	;r3 As==00
    a6d6:	f7 23       	jnz	$-16     	;abs 0xa6c6
    }

    //Check if transfer timed out
    if(timeout == 0)
    {
        return (STATUS_FAIL);
    a6d8:	0c 43       	clr	r12		;
    a6da:	30 40 20 a7 	br	#0xa720		;
    {
        ;
    }

    //Check if transfer timed out
    if(timeout == 0)
    a6de:	0e 4a       	mov	r10,	r14	;
    a6e0:	0e db       	bis	r11,	r14	;
    a6e2:	0e 93       	cmp	#0,	r14	;r3 As==00
    a6e4:	19 24       	jz	$+52     	;abs 0xa718
    {
        return (STATUS_FAIL);
    }

    // Wait for RX buffer
    while((!(HWREG16(baseAddress + OFS_UCBxIFG) & UCRXIFG)) && --timeout2)
    a6e6:	0f 4c       	mov	r12,	r15	;
    a6e8:	3f 50 2c 00 	add	#44,	r15	;#0x002c
    a6ec:	9f b3 00 00 	bit	#1,	0(r15)	;r3 As==01
    a6f0:	09 20       	jnz	$+20     	;abs 0xa704
    a6f2:	38 53       	add	#-1,	r8	;r3 As==11
    a6f4:	39 63       	addc	#-1,	r9	;r3 As==11
    a6f6:	0e 48       	mov	r8,	r14	;
    a6f8:	0e d9       	bis	r9,	r14	;
    a6fa:	0e 93       	cmp	#0,	r14	;r3 As==00
    a6fc:	f7 23       	jnz	$-16     	;abs 0xa6ec
    }

    //Check if transfer timed out
    if(timeout2 == 0)
    {
        return (STATUS_FAIL);
    a6fe:	0c 43       	clr	r12		;
    a700:	30 40 20 a7 	br	#0xa720		;
    {
        ;
    }

    //Check if transfer timed out
    if(timeout2 == 0)
    a704:	0e 48       	mov	r8,	r14	;
    a706:	0e d9       	bis	r9,	r14	;
    a708:	0e 93       	cmp	#0,	r14	;r3 As==00
    a70a:	09 24       	jz	$+20     	;abs 0xa71e
        return (STATUS_FAIL);
    }

    //Capture data from receive buffer after setting stop bit due to
    //MSP430 I2C critical timing.
    *txData = (HWREG8(baseAddress + OFS_UCBxRXBUF));
    a70c:	dd 4c 0c 00 	mov.b	12(r12),0(r13)	;0x0000c
    a710:	00 00 

    return (STATUS_SUCCESS);
    a712:	1c 43       	mov	#1,	r12	;r3 As==01
    a714:	30 40 20 a7 	br	#0xa720		;
    }

    //Check if transfer timed out
    if(timeout == 0)
    {
        return (STATUS_FAIL);
    a718:	0c 43       	clr	r12		;
    a71a:	30 40 20 a7 	br	#0xa720		;
    }

    //Check if transfer timed out
    if(timeout2 == 0)
    {
        return (STATUS_FAIL);
    a71e:	0c 43       	clr	r12		;
    //Capture data from receive buffer after setting stop bit due to
    //MSP430 I2C critical timing.
    *txData = (HWREG8(baseAddress + OFS_UCBxRXBUF));

    return (STATUS_SUCCESS);
}
    a720:	30 40 70 d1 	br	#0xd170		;

0000a724 <EUSCI_B_I2C_masterReceiveMultiByteStop>:

void EUSCI_B_I2C_masterReceiveMultiByteStop(uint16_t baseAddress)
{
    //Send stop condition.
    HWREG16(baseAddress + OFS_UCBxCTLW0) |= UCTXSTP;
    a724:	ac d2 00 00 	bis	#4,	0(r12)	;r2 As==10
}
    a728:	30 41       	ret			

0000a72a <EUSCI_B_I2C_enableMultiMasterMode>:

void EUSCI_B_I2C_enableMultiMasterMode(uint16_t baseAddress)
{
    HWREG16(baseAddress + OFS_UCBxCTLW0) |= UCSWRST;
    a72a:	9c d3 00 00 	bis	#1,	0(r12)	;r3 As==01
    HWREG16(baseAddress + OFS_UCBxCTLW0) |= UCMM;
    a72e:	bc d0 00 20 	bis	#8192,	0(r12)	;#0x2000
    a732:	00 00 
}
    a734:	30 41       	ret			

0000a736 <EUSCI_B_I2C_disableMultiMasterMode>:

void EUSCI_B_I2C_disableMultiMasterMode(uint16_t baseAddress)
{
    HWREG16(baseAddress + OFS_UCBxCTLW0) |= UCSWRST;
    a736:	9c d3 00 00 	bis	#1,	0(r12)	;r3 As==01
    HWREG16(baseAddress + OFS_UCBxCTLW0) &= ~UCMM;
    a73a:	bc f0 ff df 	and	#57343,	0(r12)	;#0xdfff
    a73e:	00 00 
}
    a740:	30 41       	ret			

0000a742 <EUSCI_B_I2C_masterReceiveSingle>:

uint8_t EUSCI_B_I2C_masterReceiveSingle(uint16_t baseAddress)
{
    //Polling RXIFG0 if RXIE is not enabled
    if(!(HWREG16(baseAddress + OFS_UCBxIE) & UCRXIE0))
    a742:	9c b3 2a 00 	bit	#1,	42(r12)	;r3 As==01, 0x002a
    a746:	06 20       	jnz	$+14     	;abs 0xa754
    {
        while(!(HWREG16(baseAddress + OFS_UCBxIFG) & UCRXIFG0))
    a748:	0d 4c       	mov	r12,	r13	;
    a74a:	3d 50 2c 00 	add	#44,	r13	;#0x002c
    a74e:	9d b3 00 00 	bit	#1,	0(r13)	;r3 As==01
    a752:	fd 27       	jz	$-4      	;abs 0xa74e
            ;
        }
    }

    //Read a byte.
    return (HWREG16(baseAddress + OFS_UCBxRXBUF));
    a754:	1c 4c 0c 00 	mov	12(r12),r12	;0x0000c
}
    a758:	30 41       	ret			

0000a75a <EUSCI_B_I2C_getReceiveBufferAddress>:

uint32_t EUSCI_B_I2C_getReceiveBufferAddress(uint16_t baseAddress)
{
    return (baseAddress + OFS_UCBxRXBUF);
}
    a75a:	3c 50 0c 00 	add	#12,	r12	;#0x000c
    a75e:	0d 43       	clr	r13		;
    a760:	30 41       	ret			

0000a762 <EUSCI_B_I2C_getTransmitBufferAddress>:

uint32_t EUSCI_B_I2C_getTransmitBufferAddress(uint16_t baseAddress)
{
    return (baseAddress + OFS_UCBxTXBUF);
}
    a762:	3c 50 0e 00 	add	#14,	r12	;#0x000e
    a766:	0d 43       	clr	r13		;
    a768:	30 41       	ret			

0000a76a <EUSCI_B_SPI_initMaster>:

#include <assert.h>

void EUSCI_B_SPI_initMaster(uint16_t baseAddress,
                            EUSCI_B_SPI_initMasterParam *param)
{
    a76a:	0a 12       	push	r10		;
    a76c:	09 12       	push	r9		;
    a76e:	08 12       	push	r8		;
    a770:	0a 4c       	mov	r12,	r10	;
    a772:	09 4d       	mov	r13,	r9	;
    //Disable the USCI Module
    HWREG16(baseAddress + OFS_UCBxCTLW0) |= UCSWRST;
    a774:	9c d3 00 00 	bis	#1,	0(r12)	;r3 As==01

    //Reset OFS_UCBxCTLW0 values
    HWREG16(baseAddress + OFS_UCBxCTLW0) &= ~(UCCKPH + UCCKPL + UC7BIT + UCMSB +
    a778:	bc f0 ff 00 	and	#255,	0(r12)	;#0x00ff
    a77c:	00 00 
                                              UCMST + UCMODE_3 + UCSYNC);

    //Reset OFS_UCBxCTLW0 values
    HWREG16(baseAddress + OFS_UCBxCTLW0) &= ~(UCSSEL_3);
    a77e:	bc f0 3f ff 	and	#65343,	0(r12)	;#0xff3f
    a782:	00 00 

    //Select Clock
    HWREG16(baseAddress + OFS_UCBxCTLW0) |= param->selectClockSource;
    a784:	6c 4d       	mov.b	@r13,	r12	;
    a786:	8a dc 00 00 	bis	r12,	0(r10)	;

    HWREG16(baseAddress + OFS_UCBxBRW) =
    a78a:	08 4a       	mov	r10,	r8	;
    a78c:	38 50 06 00 	add	#6,	r8	;
        (uint16_t)(param->clockSourceFrequency / param->desiredSpiClock);
    a790:	1c 4d 02 00 	mov	2(r13),	r12	;
    a794:	1d 4d 04 00 	mov	4(r13),	r13	;
    a798:	1e 49 06 00 	mov	6(r9),	r14	;
    a79c:	1f 49 08 00 	mov	8(r9),	r15	;
    a7a0:	b0 12 86 d0 	call	#53382		;#0xd086
    HWREG16(baseAddress + OFS_UCBxCTLW0) &= ~(UCSSEL_3);

    //Select Clock
    HWREG16(baseAddress + OFS_UCBxCTLW0) |= param->selectClockSource;

    HWREG16(baseAddress + OFS_UCBxBRW) =
    a7a4:	88 4c 00 00 	mov	r12,	0(r8)	;
     * UCMST = Master mode
     * UCSYNC = Synchronous mode
     * UCMODE_0 = 3-pin SPI
     */
    HWREG16(baseAddress + OFS_UCBxCTLW0) |= (
        param->msbFirst +
    a7a8:	1c 49 0a 00 	mov	10(r9),	r12	;0x0000a
    a7ac:	1c 59 0c 00 	add	12(r9),	r12	;0x0000c
    a7b0:	3c 50 00 09 	add	#2304,	r12	;#0x0900
    a7b4:	1c 59 0e 00 	add	14(r9),	r12	;0x0000e
        param->clockPhase +
        param->clockPolarity +
        UCMST +
        UCSYNC +
    a7b8:	1c 59 10 00 	add	16(r9),	r12	;0x00010
     * Clock phase select, polarity, msb
     * UCMST = Master mode
     * UCSYNC = Synchronous mode
     * UCMODE_0 = 3-pin SPI
     */
    HWREG16(baseAddress + OFS_UCBxCTLW0) |= (
    a7bc:	8a dc 00 00 	bis	r12,	0(r10)	;
        param->clockPolarity +
        UCMST +
        UCSYNC +
        param->spiMode
        );
}
    a7c0:	30 40 70 d1 	br	#0xd170		;

0000a7c4 <EUSCI_B_SPI_select4PinFunctionality>:

void EUSCI_B_SPI_select4PinFunctionality(uint16_t baseAddress,
                                         uint8_t select4PinFunctionality)
{
    a7c4:	3d f0 ff 00 	and	#255,	r13	;#0x00ff
    HWREG16(baseAddress + OFS_UCBxCTLW0) &= ~UCSTEM;
    a7c8:	ac c3 00 00 	bic	#2,	0(r12)	;r3 As==10
    HWREG16(baseAddress + OFS_UCBxCTLW0) |= select4PinFunctionality;
    a7cc:	8c dd 00 00 	bis	r13,	0(r12)	;
}
    a7d0:	30 41       	ret			

0000a7d2 <EUSCI_B_SPI_changeMasterClock>:

void EUSCI_B_SPI_changeMasterClock(uint16_t baseAddress,
                                   EUSCI_B_SPI_changeMasterClockParam *param)
{
    a7d2:	0a 12       	push	r10		;
    a7d4:	09 12       	push	r9		;
    a7d6:	0a 4c       	mov	r12,	r10	;
    a7d8:	0e 4d       	mov	r13,	r14	;
    //Disable the USCI Module
    HWREG16(baseAddress + OFS_UCBxCTLW0) |= UCSWRST;
    a7da:	9c d3 00 00 	bis	#1,	0(r12)	;r3 As==01

    HWREG16(baseAddress + OFS_UCBxBRW) =
    a7de:	09 4c       	mov	r12,	r9	;
    a7e0:	39 50 06 00 	add	#6,	r9	;
        (uint16_t)(param->clockSourceFrequency / param->desiredSpiClock);
    a7e4:	2c 4d       	mov	@r13,	r12	;
    a7e6:	1d 4d 02 00 	mov	2(r13),	r13	;
    a7ea:	1f 4e 06 00 	mov	6(r14),	r15	;
    a7ee:	1e 4e 04 00 	mov	4(r14),	r14	;
    a7f2:	b0 12 86 d0 	call	#53382		;#0xd086
                                   EUSCI_B_SPI_changeMasterClockParam *param)
{
    //Disable the USCI Module
    HWREG16(baseAddress + OFS_UCBxCTLW0) |= UCSWRST;

    HWREG16(baseAddress + OFS_UCBxBRW) =
    a7f6:	89 4c 00 00 	mov	r12,	0(r9)	;
        (uint16_t)(param->clockSourceFrequency / param->desiredSpiClock);

    //Reset the UCSWRST bit to enable the USCI Module
    HWREG16(baseAddress + OFS_UCBxCTLW0) &= ~(UCSWRST);
    a7fa:	9a c3 00 00 	bic	#1,	0(r10)	;r3 As==01
}
    a7fe:	30 40 72 d1 	br	#0xd172		;

0000a802 <EUSCI_B_SPI_initSlave>:

void EUSCI_B_SPI_initSlave(uint16_t baseAddress,
                           EUSCI_B_SPI_initSlaveParam *param)
{
    //Disable USCI Module
    HWREG16(baseAddress + OFS_UCBxCTLW0) |= UCSWRST;
    a802:	9c d3 00 00 	bis	#1,	0(r12)	;r3 As==01

    //Reset OFS_UCBxCTLW0 register
    HWREG16(baseAddress + OFS_UCBxCTLW0) &= ~(UCMSB +
    a806:	bc f0 ff 01 	and	#511,	0(r12)	;#0x01ff
    a80a:	00 00 
                                              UCCKPH +
                                              UCMODE_3
                                              );

    //Clock polarity, phase select, msbFirst, SYNC, Mode0
    HWREG16(baseAddress + OFS_UCBxCTLW0) |= (param->clockPhase +
    a80c:	1e 4d 02 00 	mov	2(r13),	r14	;
    a810:	1e 5d 04 00 	add	4(r13),	r14	;
    a814:	3e 50 00 01 	add	#256,	r14	;#0x0100
    a818:	2e 5d       	add	@r13,	r14	;
                                             param->clockPolarity +
                                             param->msbFirst +
                                             UCSYNC +
    a81a:	1e 5d 06 00 	add	6(r13),	r14	;
                                              UCCKPH +
                                              UCMODE_3
                                              );

    //Clock polarity, phase select, msbFirst, SYNC, Mode0
    HWREG16(baseAddress + OFS_UCBxCTLW0) |= (param->clockPhase +
    a81e:	8c de 00 00 	bis	r14,	0(r12)	;
                                             param->clockPolarity +
                                             param->msbFirst +
                                             UCSYNC +
                                             param->spiMode
                                             );
}
    a822:	30 41       	ret			

0000a824 <EUSCI_B_SPI_changeClockPhasePolarity>:
void EUSCI_B_SPI_changeClockPhasePolarity(uint16_t baseAddress,
                                          uint16_t clockPhase,
                                          uint16_t clockPolarity)
{
    //Disable the USCI Module
    HWREG16(baseAddress + OFS_UCBxCTLW0) |= UCSWRST;
    a824:	9c d3 00 00 	bis	#1,	0(r12)	;r3 As==01

    HWREG16(baseAddress + OFS_UCBxCTLW0) &= ~(UCCKPH + UCCKPL);
    a828:	bc f0 ff 3f 	and	#16383,	0(r12)	;#0x3fff
    a82c:	00 00 

    HWREG16(baseAddress + OFS_UCBxCTLW0) |= (
        clockPhase +
    a82e:	0d 5e       	add	r14,	r13	;
    //Disable the USCI Module
    HWREG16(baseAddress + OFS_UCBxCTLW0) |= UCSWRST;

    HWREG16(baseAddress + OFS_UCBxCTLW0) &= ~(UCCKPH + UCCKPL);

    HWREG16(baseAddress + OFS_UCBxCTLW0) |= (
    a830:	8c dd 00 00 	bis	r13,	0(r12)	;
        clockPhase +
        clockPolarity
        );

    //Reset the UCSWRST bit to enable the USCI Module
    HWREG16(baseAddress + OFS_UCBxCTLW0) &= ~(UCSWRST);
    a834:	9c c3 00 00 	bic	#1,	0(r12)	;r3 As==01
}
    a838:	30 41       	ret			

0000a83a <EUSCI_B_SPI_transmitData>:

void EUSCI_B_SPI_transmitData(uint16_t baseAddress,
                              uint8_t transmitData)
{
    HWREG16(baseAddress + OFS_UCBxTXBUF) = transmitData;
    a83a:	3d f0 ff 00 	and	#255,	r13	;#0x00ff
    a83e:	8c 4d 0e 00 	mov	r13,	14(r12)	; 0x000e
}
    a842:	30 41       	ret			

0000a844 <EUSCI_B_SPI_receiveData>:

uint8_t EUSCI_B_SPI_receiveData(uint16_t baseAddress)
{
    return (HWREG16(baseAddress + OFS_UCBxRXBUF));
    a844:	1c 4c 0c 00 	mov	12(r12),r12	;0x0000c
}
    a848:	30 41       	ret			

0000a84a <EUSCI_B_SPI_enableInterrupt>:

void EUSCI_B_SPI_enableInterrupt(uint16_t baseAddress,
                                 uint8_t mask)
{
    a84a:	3d f0 ff 00 	and	#255,	r13	;#0x00ff
    HWREG16(baseAddress + OFS_UCBxIE) |= mask;
    a84e:	8c dd 2a 00 	bis	r13,	42(r12)	; 0x002a
}
    a852:	30 41       	ret			

0000a854 <EUSCI_B_SPI_disableInterrupt>:

void EUSCI_B_SPI_disableInterrupt(uint16_t baseAddress,
                                  uint8_t mask)
{
    a854:	3d f0 ff 00 	and	#255,	r13	;#0x00ff
    HWREG16(baseAddress + OFS_UCBxIE) &= ~mask;
    a858:	8c cd 2a 00 	bic	r13,	42(r12)	; 0x002a
}
    a85c:	30 41       	ret			

0000a85e <EUSCI_B_SPI_getInterruptStatus>:

uint8_t EUSCI_B_SPI_getInterruptStatus(uint16_t baseAddress,
                                       uint8_t mask)
{
    return (HWREG16(baseAddress + OFS_UCBxIFG) & mask);
    a85e:	1c 4c 2c 00 	mov	44(r12),r12	;0x0002c
}
    a862:	4c fd       	and.b	r13,	r12	;
    a864:	30 41       	ret			

0000a866 <EUSCI_B_SPI_clearInterrupt>:

void EUSCI_B_SPI_clearInterrupt(uint16_t baseAddress,
                                uint8_t mask)
{
    a866:	3d f0 ff 00 	and	#255,	r13	;#0x00ff
    HWREG16(baseAddress + OFS_UCBxIFG) &= ~mask;
    a86a:	8c cd 2c 00 	bic	r13,	44(r12)	; 0x002c
}
    a86e:	30 41       	ret			

0000a870 <EUSCI_B_SPI_enable>:

void EUSCI_B_SPI_enable(uint16_t baseAddress)
{
    //Reset the UCSWRST bit to enable the USCI Module
    HWREG16(baseAddress + OFS_UCBxCTLW0) &= ~(UCSWRST);
    a870:	9c c3 00 00 	bic	#1,	0(r12)	;r3 As==01
}
    a874:	30 41       	ret			

0000a876 <EUSCI_B_SPI_disable>:

void EUSCI_B_SPI_disable(uint16_t baseAddress)
{
    //Set the UCSWRST bit to disable the USCI Module
    HWREG16(baseAddress + OFS_UCBxCTLW0) |= UCSWRST;
    a876:	9c d3 00 00 	bis	#1,	0(r12)	;r3 As==01
}
    a87a:	30 41       	ret			

0000a87c <EUSCI_B_SPI_getReceiveBufferAddress>:

uint32_t EUSCI_B_SPI_getReceiveBufferAddress(uint16_t baseAddress)
{
    return (baseAddress + OFS_UCBxRXBUF);
}
    a87c:	3c 50 0c 00 	add	#12,	r12	;#0x000c
    a880:	0d 43       	clr	r13		;
    a882:	30 41       	ret			

0000a884 <EUSCI_B_SPI_getTransmitBufferAddress>:

uint32_t EUSCI_B_SPI_getTransmitBufferAddress(uint16_t baseAddress)
{
    return (baseAddress + OFS_UCBxTXBUF);
}
    a884:	3c 50 0e 00 	add	#14,	r12	;#0x000e
    a888:	0d 43       	clr	r13		;
    a88a:	30 41       	ret			

0000a88c <EUSCI_B_SPI_isBusy>:

uint16_t EUSCI_B_SPI_isBusy(uint16_t baseAddress)
{
    //Return the bus busy status.
    return (HWREG16(baseAddress + OFS_UCBxSTATW) & UCBUSY);
}
    a88c:	1c 4c 08 00 	mov	8(r12),	r12	;
    a890:	1c f3       	and	#1,	r12	;r3 As==01
    a892:	30 41       	ret			

0000a894 <FlashCtl_eraseSegment>:

#include <assert.h>

void FlashCtl_eraseSegment(uint8_t *flash_ptr){
    //Clear Lock bit
    HWREG16(FLASH_BASE + OFS_FCTL3) = FWKEY;
    a894:	b2 40 00 a5 	mov	#42240,	&0x012c	;#0xa500
    a898:	2c 01 

    //Set Erase bit
    HWREG16(FLASH_BASE + OFS_FCTL1) = FWKEY + ERASE;
    a89a:	b2 40 02 a5 	mov	#42242,	&0x0128	;#0xa502
    a89e:	28 01 

    //Dummy write to erase Flash seg
    *flash_ptr = 0;
    a8a0:	cc 43 00 00 	mov.b	#0,	0(r12)	;r3 As==00

    //test busy
    while(HWREG8(FLASH_BASE + OFS_FCTL3) & BUSY)
    a8a4:	3c 40 2c 01 	mov	#300,	r12	;#0x012c
    a8a8:	dc b3 00 00 	bit.b	#1,	0(r12)	;r3 As==01
    a8ac:	fd 23       	jnz	$-4      	;abs 0xa8a8
    {
        ;
    }

    //Clear ERASE bit
    HWREG16(FLASH_BASE + OFS_FCTL1) = FWKEY;
    a8ae:	b2 40 00 a5 	mov	#42240,	&0x0128	;#0xa500
    a8b2:	28 01 

    //Set LOCK bit
    HWREG16(FLASH_BASE + OFS_FCTL3) = FWKEY + LOCK;
    a8b4:	b2 40 10 a5 	mov	#42256,	&0x012c	;#0xa510
    a8b8:	2c 01 
}
    a8ba:	30 41       	ret			

0000a8bc <FlashCtl_performMassErase>:

void FlashCtl_performMassErase(uint8_t *flash_ptr){
    //Clear Lock bit
    HWREG16(FLASH_BASE + OFS_FCTL3) = FWKEY;
    a8bc:	b2 40 00 a5 	mov	#42240,	&0x012c	;#0xa500
    a8c0:	2c 01 

    while(HWREG8(FLASH_BASE + OFS_FCTL3) & BUSY)
    a8c2:	3d 40 2c 01 	mov	#300,	r13	;#0x012c
    a8c6:	dd b3 00 00 	bit.b	#1,	0(r13)	;r3 As==01
    a8ca:	fd 23       	jnz	$-4      	;abs 0xa8c6
    {
        ;
    }

    //Set MERAS bit
    HWREG16(FLASH_BASE + OFS_FCTL1) = FWKEY + MERAS + ERASE;
    a8cc:	b2 40 06 a5 	mov	#42246,	&0x0128	;#0xa506
    a8d0:	28 01 

    //Dummy write to erase Flash seg
    *flash_ptr = 0;
    a8d2:	cc 43 00 00 	mov.b	#0,	0(r12)	;r3 As==00

    //test busy
    while(HWREG8(FLASH_BASE + OFS_FCTL3) & BUSY)
    a8d6:	3c 40 2c 01 	mov	#300,	r12	;#0x012c
    a8da:	dc b3 00 00 	bit.b	#1,	0(r12)	;r3 As==01
    a8de:	fd 23       	jnz	$-4      	;abs 0xa8da
    {
        ;
    }

    //Clear MERAS bit
    HWREG16(FLASH_BASE + OFS_FCTL1) = FWKEY;
    a8e0:	b2 40 00 a5 	mov	#42240,	&0x0128	;#0xa500
    a8e4:	28 01 

    //Set LOCK bit
    HWREG16(FLASH_BASE + OFS_FCTL3) = FWKEY + LOCK;
    a8e6:	b2 40 10 a5 	mov	#42256,	&0x012c	;#0xa510
    a8ea:	2c 01 
}
    a8ec:	30 41       	ret			

0000a8ee <FlashCtl_performEraseCheck>:
bool FlashCtl_performEraseCheck(uint8_t *flash_ptr,
                                uint16_t numberOfBytes)
{
    uint16_t i;

    for(i = 0; i < numberOfBytes; i++)
    a8ee:	0d 93       	cmp	#0,	r13	;r3 As==00
    a8f0:	11 24       	jz	$+36     	;abs 0xa914
    {
        //was erasing successfull?
        if((*(flash_ptr + i)) != 0xFF)
    a8f2:	fc 93 00 00 	cmp.b	#-1,	0(r12)	;r3 As==11
    a8f6:	11 20       	jnz	$+36     	;abs 0xa91a
    a8f8:	0e 4c       	mov	r12,	r14	;
    a8fa:	1e 53       	inc	r14		;
    a8fc:	0d 5c       	add	r12,	r13	;
    a8fe:	30 40 0a a9 	br	#0xa90a		;
    a902:	1e 53       	inc	r14		;
    a904:	fe 93 ff ff 	cmp.b	#-1,	-1(r14)	;r3 As==11, 0xffff
    a908:	0b 20       	jnz	$+24     	;abs 0xa920
bool FlashCtl_performEraseCheck(uint8_t *flash_ptr,
                                uint16_t numberOfBytes)
{
    uint16_t i;

    for(i = 0; i < numberOfBytes; i++)
    a90a:	0e 9d       	cmp	r13,	r14	;
    a90c:	fa 23       	jnz	$-10     	;abs 0xa902
        if((*(flash_ptr + i)) != 0xFF)
        {
            return (STATUS_FAIL);
        }
    }
    return (STATUS_SUCCESS);
    a90e:	1c 43       	mov	#1,	r12	;r3 As==01
    a910:	30 40 22 a9 	br	#0xa922		;
    a914:	1c 43       	mov	#1,	r12	;r3 As==01
    a916:	30 40 22 a9 	br	#0xa922		;
    for(i = 0; i < numberOfBytes; i++)
    {
        //was erasing successfull?
        if((*(flash_ptr + i)) != 0xFF)
        {
            return (STATUS_FAIL);
    a91a:	0c 43       	clr	r12		;
    a91c:	30 40 22 a9 	br	#0xa922		;
    a920:	0c 43       	clr	r12		;
        }
    }
    return (STATUS_SUCCESS);
}
    a922:	30 41       	ret			

0000a924 <FlashCtl_write8>:
void FlashCtl_write8(uint8_t *data_ptr,
                     uint8_t *flash_ptr,
                     uint16_t count)
{
    //Clear Lock bit
    HWREG16(FLASH_BASE + OFS_FCTL3) = FWKEY;
    a924:	b2 40 00 a5 	mov	#42240,	&0x012c	;#0xa500
    a928:	2c 01 

    //Enable byte/word write mode
    HWREG16(FLASH_BASE + OFS_FCTL1) = FWKEY + WRT;
    a92a:	b2 40 40 a5 	mov	#42304,	&0x0128	;#0xa540
    a92e:	28 01 

    while(count > 0)
    a930:	0e 93       	cmp	#0,	r14	;r3 As==00
    a932:	0d 24       	jz	$+28     	;abs 0xa94e
    a934:	0b 4c       	mov	r12,	r11	;
    a936:	0c 5e       	add	r14,	r12	;
    {
        //test busy
        while(HWREG8(FLASH_BASE + OFS_FCTL3) & BUSY)
    a938:	3f 40 2c 01 	mov	#300,	r15	;#0x012c
    a93c:	df b3 00 00 	bit.b	#1,	0(r15)	;r3 As==01
    a940:	fd 23       	jnz	$-4      	;abs 0xa93c
        {
            ;
        }

        //Write to Flash
        *flash_ptr++ = *data_ptr++;
    a942:	ed 4b 00 00 	mov.b	@r11,	0(r13)	;
    a946:	1b 53       	inc	r11		;
    a948:	1d 53       	inc	r13		;
    HWREG16(FLASH_BASE + OFS_FCTL3) = FWKEY;

    //Enable byte/word write mode
    HWREG16(FLASH_BASE + OFS_FCTL1) = FWKEY + WRT;

    while(count > 0)
    a94a:	0b 9c       	cmp	r12,	r11	;
    a94c:	f7 23       	jnz	$-16     	;abs 0xa93c
        *flash_ptr++ = *data_ptr++;
        count--;
    }

    //Clear WRT bit
    HWREG16(FLASH_BASE + OFS_FCTL1) = FWKEY;
    a94e:	b2 40 00 a5 	mov	#42240,	&0x0128	;#0xa500
    a952:	28 01 

    //Set LOCK bit
    HWREG16(FLASH_BASE + OFS_FCTL3) = FWKEY + LOCK;
    a954:	b2 40 10 a5 	mov	#42256,	&0x012c	;#0xa510
    a958:	2c 01 
}
    a95a:	30 41       	ret			

0000a95c <FlashCtl_write16>:
void FlashCtl_write16(uint16_t *data_ptr,
                      uint16_t *flash_ptr,
                      uint16_t count)
{
    //Clear Lock bit
    HWREG16(FLASH_BASE + OFS_FCTL3) = FWKEY;
    a95c:	b2 40 00 a5 	mov	#42240,	&0x012c	;#0xa500
    a960:	2c 01 

    //Enable byte/word write mode
    HWREG16(FLASH_BASE + OFS_FCTL1) = FWKEY + WRT;
    a962:	b2 40 40 a5 	mov	#42304,	&0x0128	;#0xa540
    a966:	28 01 

    while(count > 0)
    a968:	0e 93       	cmp	#0,	r14	;r3 As==00
    a96a:	0c 24       	jz	$+26     	;abs 0xa984
    {
        //test busy
        while(HWREG8(FLASH_BASE + OFS_FCTL3) & BUSY)
    a96c:	3f 40 2c 01 	mov	#300,	r15	;#0x012c
    a970:	df b3 00 00 	bit.b	#1,	0(r15)	;r3 As==01
    a974:	fd 23       	jnz	$-4      	;abs 0xa970
        {
            ;
        }

        //Write to Flash
        *flash_ptr++ = *data_ptr++;
    a976:	ad 4c 00 00 	mov	@r12,	0(r13)	;
        count--;
    a97a:	3e 53       	add	#-1,	r14	;r3 As==11
    a97c:	2c 53       	incd	r12		;
    a97e:	2d 53       	incd	r13		;
    HWREG16(FLASH_BASE + OFS_FCTL3) = FWKEY;

    //Enable byte/word write mode
    HWREG16(FLASH_BASE + OFS_FCTL1) = FWKEY + WRT;

    while(count > 0)
    a980:	0e 93       	cmp	#0,	r14	;r3 As==00
    a982:	f6 23       	jnz	$-18     	;abs 0xa970
        *flash_ptr++ = *data_ptr++;
        count--;
    }

    //Clear WRT bit
    HWREG16(FLASH_BASE + OFS_FCTL1) = FWKEY;
    a984:	b2 40 00 a5 	mov	#42240,	&0x0128	;#0xa500
    a988:	28 01 

    //Set LOCK bit
    HWREG16(FLASH_BASE + OFS_FCTL3) = FWKEY + LOCK;
    a98a:	b2 40 10 a5 	mov	#42256,	&0x012c	;#0xa510
    a98e:	2c 01 
}
    a990:	30 41       	ret			

0000a992 <FlashCtl_write32>:

void FlashCtl_write32(uint32_t *data_ptr,
                      uint32_t *flash_ptr,
                      uint16_t count)
{
    a992:	0a 12       	push	r10		;
    //Create 16-bit pointers and assign to same values as data_ptr and flash_ptr
    uint16_t *data_ptr16 = (uint16_t*)data_ptr;
    uint16_t *flash_ptr16 = (uint16_t*)flash_ptr;
    //Clear Lock bit
    HWREG16(FLASH_BASE + OFS_FCTL3) = FWKEY;
    a994:	b2 40 00 a5 	mov	#42240,	&0x012c	;#0xa500
    a998:	2c 01 

    //Enable write mode
    HWREG16(FLASH_BASE + OFS_FCTL1) = FWKEY + WRT;
    a99a:	b2 40 40 a5 	mov	#42304,	&0x0128	;#0xa540
    a99e:	28 01 

    while(count > 0)
    a9a0:	0e 93       	cmp	#0,	r14	;r3 As==00
    a9a2:	17 24       	jz	$+48     	;abs 0xa9d2
    a9a4:	0a 4c       	mov	r12,	r10	;
    a9a6:	2a 53       	incd	r10		;
    a9a8:	0b 4d       	mov	r13,	r11	;
    a9aa:	2b 53       	incd	r11		;
    {
        //Test the busy bit
        while(HWREG8(FLASH_BASE + OFS_FCTL3) & BUSY)
    a9ac:	3f 40 2c 01 	mov	#300,	r15	;#0x012c
    a9b0:	df b3 00 00 	bit.b	#1,	0(r15)	;r3 As==01
    a9b4:	fd 23       	jnz	$-4      	;abs 0xa9b0
        {
            ;
        }

        //Write to the flash
        *(uint16_t*)flash_ptr16++ = *data_ptr16++;
    a9b6:	ad 4c 00 00 	mov	@r12,	0(r13)	;

        //Test the busy bit
        while(HWREG8(FLASH_BASE + OFS_FCTL3) & BUSY)
    a9ba:	df b3 00 00 	bit.b	#1,	0(r15)	;r3 As==01
    a9be:	fd 23       	jnz	$-4      	;abs 0xa9ba
    a9c0:	2d 52       	add	#4,	r13	;r2 As==10
    a9c2:	2c 52       	add	#4,	r12	;r2 As==10
        {
            ;
        }

        //Write to the flash
        *(uint16_t*)flash_ptr16++ = *data_ptr16++;
    a9c4:	ab 4a 00 00 	mov	@r10,	0(r11)	;

        count--;
    a9c8:	3e 53       	add	#-1,	r14	;r3 As==11
    a9ca:	2a 52       	add	#4,	r10	;r2 As==10
    a9cc:	2b 52       	add	#4,	r11	;r2 As==10
    HWREG16(FLASH_BASE + OFS_FCTL3) = FWKEY;

    //Enable write mode
    HWREG16(FLASH_BASE + OFS_FCTL1) = FWKEY + WRT;

    while(count > 0)
    a9ce:	0e 93       	cmp	#0,	r14	;r3 As==00
    a9d0:	ef 23       	jnz	$-32     	;abs 0xa9b0

        count--;
    }

    //Clear BLKWRT bit
    HWREG16(FLASH_BASE + OFS_FCTL1) = FWKEY;
    a9d2:	b2 40 00 a5 	mov	#42240,	&0x0128	;#0xa500
    a9d6:	28 01 

    //Set LOCK bit
    HWREG16(FLASH_BASE + OFS_FCTL3) = FWKEY + LOCK;
    a9d8:	b2 40 10 a5 	mov	#42256,	&0x012c	;#0xa510
    a9dc:	2c 01 
}
    a9de:	3a 41       	pop	r10		;
    a9e0:	30 41       	ret			

0000a9e2 <FlashCtl_fillMemory32>:

void FlashCtl_fillMemory32(uint32_t value,
                           uint32_t *flash_ptr,
                           uint16_t count)
{
    a9e2:	0a 12       	push	r10		;
    a9e4:	09 12       	push	r9		;
    a9e6:	08 12       	push	r8		;
    a9e8:	0a 4e       	mov	r14,	r10	;
    a9ea:	09 4f       	mov	r15,	r9	;
    //Create a 16-bit pointer and assign to same value as flash_ptr
    uint16_t *flash_ptr16 = (uint16_t*)flash_ptr;

    //Create two 16-bit data values from value
    uint16_t value_LSW = (uint16_t)value;
    a9ec:	08 4c       	mov	r12,	r8	;
    uint16_t value_MSW = (uint16_t)(value >> 16);
    a9ee:	3e 40 10 00 	mov	#16,	r14	;#0x0010
    a9f2:	b0 12 0e d3 	call	#54030		;#0xd30e
    //Clear Lock bit
    HWREG16(FLASH_BASE + OFS_FCTL3) = FWKEY;
    a9f6:	b2 40 00 a5 	mov	#42240,	&0x012c	;#0xa500
    a9fa:	2c 01 

    //Enable write mode
    HWREG16(FLASH_BASE + OFS_FCTL1) = FWKEY + WRT;
    a9fc:	b2 40 40 a5 	mov	#42304,	&0x0128	;#0xa540
    aa00:	28 01 

    //test busy
    while(count > 0)
    aa02:	09 93       	cmp	#0,	r9	;r3 As==00
    aa04:	13 24       	jz	$+40     	;abs 0xaa2c
    aa06:	0e 4a       	mov	r10,	r14	;
    aa08:	2e 53       	incd	r14		;
    {
        //Test the busy bit
        while(HWREG8(FLASH_BASE + OFS_FCTL3) & BUSY)
    aa0a:	3d 40 2c 01 	mov	#300,	r13	;#0x012c
    aa0e:	dd b3 00 00 	bit.b	#1,	0(r13)	;r3 As==01
    aa12:	fd 23       	jnz	$-4      	;abs 0xaa0e
        {
            ;
        }

        //Write least-significant 16 bits to the flash
        *(uint16_t*)flash_ptr16++ = value_LSW;
    aa14:	8a 48 00 00 	mov	r8,	0(r10)	;

        //Test the busy bit
        while(HWREG8(FLASH_BASE + OFS_FCTL3) & BUSY)
    aa18:	dd b3 00 00 	bit.b	#1,	0(r13)	;r3 As==01
    aa1c:	fd 23       	jnz	$-4      	;abs 0xaa18
    aa1e:	2a 52       	add	#4,	r10	;r2 As==10
        {
            ;
        }

        //Write most-significant 16 bits to the flash
        *(uint16_t*)flash_ptr16++ = value_MSW;
    aa20:	8e 4c 00 00 	mov	r12,	0(r14)	;

        count--;
    aa24:	39 53       	add	#-1,	r9	;r3 As==11
    aa26:	2e 52       	add	#4,	r14	;r2 As==10

    //Enable write mode
    HWREG16(FLASH_BASE + OFS_FCTL1) = FWKEY + WRT;

    //test busy
    while(count > 0)
    aa28:	09 93       	cmp	#0,	r9	;r3 As==00
    aa2a:	f1 23       	jnz	$-28     	;abs 0xaa0e

        count--;
    }

    //Clear BLKWRT bit
    HWREG16(FLASH_BASE + OFS_FCTL1) = FWKEY;
    aa2c:	b2 40 00 a5 	mov	#42240,	&0x0128	;#0xa500
    aa30:	28 01 

    //Set LOCK bit
    HWREG16(FLASH_BASE + OFS_FCTL3) = FWKEY + LOCK;
    aa32:	b2 40 10 a5 	mov	#42256,	&0x012c	;#0xa510
    aa36:	2c 01 
}
    aa38:	30 40 70 d1 	br	#0xd170		;

0000aa3c <FlashCtl_getStatus>:

uint8_t FlashCtl_getStatus(uint8_t mask)
{
    return ((HWREG8(FLASH_BASE + OFS_FCTL3) & mask));
}
    aa3c:	5c f2 2c 01 	and.b	&0x012c,r12	;0x012c
    aa40:	30 41       	ret			

0000aa42 <FlashCtl_lockInfo>:

void FlashCtl_lockInfo(void)
{
    //Disable global interrupts while doing RMW operation on LOCKSEG bit
    uint16_t gieStatus;                         //Local variable to store GIE status
    gieStatus = __get_SR_register() & GIE;      //Store current SR register
    aa42:	0c 42       	mov	r2,	r12	;
    __disable_interrupt();                      //Disable global interrupt
    aa44:	32 c2       	dint			

    //Set the LOCKSEG bit in FCTL3.
    //Since LOCKSEG toggles when you write a 1 (and writing 0 has no effect),
    //read the register, XOR with LOCKSEG mask, mask the lower byte, and write it back.
    HWREG16(FLASH_BASE + OFS_FCTL3) =
        FWKEY + ((HWREG16(FLASH_BASE + OFS_FCTL3) ^ LOCKSEG) & 0xFF);
    aa46:	3e 40 2c 01 	mov	#300,	r14	;#0x012c
    aa4a:	2d 4e       	mov	@r14,	r13	;
    aa4c:	3d e0 40 00 	xor	#64,	r13	;#0x0040
    aa50:	3d f0 ff 00 	and	#255,	r13	;#0x00ff
    __disable_interrupt();                      //Disable global interrupt

    //Set the LOCKSEG bit in FCTL3.
    //Since LOCKSEG toggles when you write a 1 (and writing 0 has no effect),
    //read the register, XOR with LOCKSEG mask, mask the lower byte, and write it back.
    HWREG16(FLASH_BASE + OFS_FCTL3) =
    aa54:	3d 50 00 a5 	add	#42240,	r13	;#0xa500
    aa58:	8e 4d 00 00 	mov	r13,	0(r14)	;

void FlashCtl_lockInfo(void)
{
    //Disable global interrupts while doing RMW operation on LOCKSEG bit
    uint16_t gieStatus;                         //Local variable to store GIE status
    gieStatus = __get_SR_register() & GIE;      //Store current SR register
    aa5c:	3c f2       	and	#8,	r12	;r2 As==11
    //read the register, XOR with LOCKSEG mask, mask the lower byte, and write it back.
    HWREG16(FLASH_BASE + OFS_FCTL3) =
        FWKEY + ((HWREG16(FLASH_BASE + OFS_FCTL3) ^ LOCKSEG) & 0xFF);

    //Reinstate SR register to restore global interrupt enable status
    __bis_SR_register(gieStatus);
    aa5e:	02 dc       	bis	r12,	r2	;
}
    aa60:	30 41       	ret			

0000aa62 <FlashCtl_unlockInfo>:

void FlashCtl_unlockInfo(void)
{
    //Disable global interrupts while doing RMW operation on LOCKSEG bit
    uint16_t gieStatus;                         //Local variable to store GIE status
    gieStatus = __get_SR_register() & GIE;      //Store current SR register
    aa62:	0c 42       	mov	r2,	r12	;
    __disable_interrupt();                      //Disable global interrupt
    aa64:	32 c2       	dint			

    //Clear the LOCKSEG bit in FCTL3.
    //Since LOCKSEG toggles when you write a 1 (and writing 0 has no effect),
    //read the register, mask the lower byte, and write it back.
    HWREG16(FLASH_BASE +
            OFS_FCTL3) = FWKEY + (HWREG16(FLASH_BASE + OFS_FCTL3) & 0xFF);
    aa66:	1d 42 2c 01 	mov	&0x012c,r13	;0x012c
    aa6a:	3d f0 ff 00 	and	#255,	r13	;#0x00ff
    aa6e:	3d 50 00 a5 	add	#42240,	r13	;#0xa500
    aa72:	82 4d 2c 01 	mov	r13,	&0x012c	;

void FlashCtl_unlockInfo(void)
{
    //Disable global interrupts while doing RMW operation on LOCKSEG bit
    uint16_t gieStatus;                         //Local variable to store GIE status
    gieStatus = __get_SR_register() & GIE;      //Store current SR register
    aa76:	3c f2       	and	#8,	r12	;r2 As==11
    //read the register, mask the lower byte, and write it back.
    HWREG16(FLASH_BASE +
            OFS_FCTL3) = FWKEY + (HWREG16(FLASH_BASE + OFS_FCTL3) & 0xFF);

    //Reinstate SR register to restore global interrupt enable status
    __bis_SR_register(gieStatus);
    aa78:	02 dc       	bis	r12,	r2	;
}
    aa7a:	30 41       	ret			

0000aa7c <FlashCtl_setupClock>:

uint8_t FlashCtl_setupClock(uint32_t clockTargetFreq,
                            uint32_t clockSourceFreq,
